(dp1
S'output'
p2
S"<type 'exceptions.NameError'> global name 'ogr' is not defined"
p3
sS'layer'
p4
S'/var/www/web2py/applications/radiomaps/controllers/default.py'
p5
sS'code'
p6
S'<code object <module> at 0x7f77e1e357b0, file "/var/www/web2py/applications/radiomaps/controllers/default.py", line 2>'
p7
sS'snapshot'
p8
(dp9
S'exception'
p10
(dp11
S'__getslice__'
p12
S"<method-wrapper '__getslice__' of exceptions.NameError object>"
p13
sS'__str__'
p14
S"<method-wrapper '__str__' of exceptions.NameError object>"
p15
sS'__reduce__'
p16
S'<built-in method __reduce__ of exceptions.NameError object>'
p17
sS'__dict__'
p18
S'{}'
p19
sS'message'
p20
S'"global name \'ogr\' is not defined"'
p21
sS'__sizeof__'
p22
S'<built-in method __sizeof__ of exceptions.NameError object>'
p23
sS'__init__'
p24
S"<method-wrapper '__init__' of exceptions.NameError object>"
p25
sS'__setattr__'
p26
S"<method-wrapper '__setattr__' of exceptions.NameError object>"
p27
sS'__reduce_ex__'
p28
S'<built-in method __reduce_ex__ of exceptions.NameError object>'
p29
sS'__new__'
p30
S'<built-in method __new__ of type object>'
p31
sS'__format__'
p32
S'<built-in method __format__ of exceptions.NameError object>'
p33
sS'__class__'
p34
S"<type 'exceptions.NameError'>"
p35
sS'__doc__'
p36
S"'Name not found globally.'"
p37
sS'__getitem__'
p38
S"<method-wrapper '__getitem__' of exceptions.NameError object>"
p39
sS'__setstate__'
p40
S'<built-in method __setstate__ of exceptions.NameError object>'
p41
sS'__getattribute__'
p42
S"<method-wrapper '__getattribute__' of exceptions.NameError object>"
p43
sS'args'
p44
S'("global name \'ogr\' is not defined",)'
p45
sS'__subclasshook__'
p46
S'<built-in method __subclasshook__ of type object>'
p47
sS'__unicode__'
p48
S'<built-in method __unicode__ of exceptions.NameError object>'
p49
sS'__delattr__'
p50
S"<method-wrapper '__delattr__' of exceptions.NameError object>"
p51
sS'__repr__'
p52
S"<method-wrapper '__repr__' of exceptions.NameError object>"
p53
sS'__hash__'
p54
S"<method-wrapper '__hash__' of exceptions.NameError object>"
p55
ssS'evalue'
p56
S"global name 'ogr' is not defined"
p57
sS'request'
p58
cgluon.html
XML_unpickle
p59
(S'sYs\x00\x00<div><table><tr><td style="font-weight:bold;vertical-align:top;">ajax</td><td style="vertical-align:top;">:</td><td><div>False</div></td></tr><tr><td style="font-weight:bold;vertical-align:top;">application</td><td style="vertical-align:top;">:</td><td><div>radiomaps</div></td></tr><tr><td style="font-weight:bold;vertical-align:top;">args</td><td style="vertical-align:top;">:</td><td><div><table></table></div></td></tr><tr><td style="font-weight:bold;vertical-align:top;">cid</td><td style="vertical-align:top;">:</td><td><div>None</div></td></tr><tr><td style="font-weight:bold;vertical-align:top;">client</td><td style="vertical-align:top;">:</td><td><div>127.0.0.1</div></td></tr><tr><td style="font-weight:bold;vertical-align:top;">controller</td><td style="vertical-align:top;">:</td><td><div>default</div></td></tr><tr><td style="font-weight:bold;vertical-align:top;">cookies</td><td style="vertical-align:top;">:</td><td><div><table><tr><td style="font-weight:bold;vertical-align:top;">session_id_admin</td><td style="vertical-align:top;">:</td><td><div>127.0.0.1-d7bf07af-7949-41b4-9107-9658f86ccef8<table><tr><td style="font-weight:bold;vertical-align:top;">comment</td><td style="vertical-align:top;">:</td><td><div></div></td></tr><tr><td style="font-weight:bold;vertical-align:top;">domain</td><td style="vertical-align:top;">:</td><td><div></div></td></tr><tr><td style="font-weight:bold;vertical-align:top;">expires</td><td style="vertical-align:top;">:</td><td><div></div></td></tr><tr><td style="font-weight:bold;vertical-align:top;">httponly</td><td style="vertical-align:top;">:</td><td><div></div></td></tr><tr><td style="font-weight:bold;vertical-align:top;">max-age</td><td style="vertical-align:top;">:</td><td><div></div></td></tr><tr><td style="font-weight:bold;vertical-align:top;">path</td><td style="vertical-align:top;">:</td><td><div></div></td></tr><tr><td style="font-weight:bold;vertical-align:top;">secure</td><td style="vertical-align:top;">:</td><td><div></div></td></tr><tr><td style="font-weight:bold;vertical-align:top;">version</td><td style="vertical-align:top;">:</td><td><div></div></td></tr></table></div></td></tr><tr><td style="font-weight:bold;vertical-align:top;">session_id_radiomaps</td><td style="vertical-align:top;">:</td><td><div>127.0.0.1-b715c132-7d18-4c10-b20d-b5de2dd13b9d<table><tr><td style="font-weight:bold;vertical-align:top;">comment</td><td style="vertical-align:top;">:</td><td><div></div></td></tr><tr><td style="font-weight:bold;vertical-align:top;">domain</td><td style="vertical-align:top;">:</td><td><div></div></td></tr><tr><td style="font-weight:bold;vertical-align:top;">expires</td><td style="vertical-align:top;">:</td><td><div></div></td></tr><tr><td style="font-weight:bold;vertical-align:top;">httponly</td><td style="vertical-align:top;">:</td><td><div></div></td></tr><tr><td style="font-weight:bold;vertical-align:top;">max-age</td><td style="vertical-align:top;">:</td><td><div></div></td></tr><tr><td style="font-weight:bold;vertical-align:top;">path</td><td style="vertical-align:top;">:</td><td><div></div></td></tr><tr><td style="font-weight:bold;vertical-align:top;">secure</td><td style="vertical-align:top;">:</td><td><div></div></td></tr><tr><td style="font-weight:bold;vertical-align:top;">version</td><td style="vertical-align:top;">:</td><td><div></div></td></tr></table></div></td></tr><tr><td style="font-weight:bold;vertical-align:top;">session_id_welcome</td><td style="vertical-align:top;">:</td><td><div>127.0.0.1-b40ffd1b-456e-4fe8-9698-53474e6d84bb<table><tr><td style="font-weight:bold;vertical-align:top;">comment</td><td style="vertical-align:top;">:</td><td><div></div></td></tr><tr><td style="font-weight:bold;vertical-align:top;">domain</td><td style="vertical-align:top;">:</td><td><div></div></td></tr><tr><td style="font-weight:bold;vertical-align:top;">expires</td><td style="vertical-align:top;">:</td><td><div></div></td></tr><tr><td style="font-weight:bold;vertical-align:top;">httponly</td><td style="vertical-align:top;">:</td><td><div></div></td></tr><tr><td style="font-weight:bold;vertical-align:top;">max-age</td><td style="vertical-align:top;">:</td><td><div></div></td></tr><tr><td style="font-weight:bold;vertical-align:top;">path</td><td style="vertical-align:top;">:</td><td><div></div></td></tr><tr><td style="font-weight:bold;vertical-align:top;">secure</td><td style="vertical-align:top;">:</td><td><div></div></td></tr><tr><td style="font-weight:bold;vertical-align:top;">version</td><td style="vertical-align:top;">:</td><td><div></div></td></tr></table></div></td></tr></table></div></td></tr><tr><td style="font-weight:bold;vertical-align:top;">env</td><td style="vertical-align:top;">:</td><td><div><table><tr><td style="font-weight:bold;vertical-align:top;">CONTEXT_DOCUMENT_ROOT</td><td style="vertical-align:top;">:</td><td><div>/var/www/html</div></td></tr><tr><td style="font-weight:bold;vertical-align:top;">CONTEXT_PREFIX</td><td style="vertical-align:top;">:</td><td><div></div></td></tr><tr><td style="font-weight:bold;vertical-align:top;">DOCUMENT_ROOT</td><td style="vertical-align:top;">:</td><td><div>/var/www/html</div></td></tr><tr><td style="font-weight:bold;vertical-align:top;">GATEWAY_INTERFACE</td><td style="vertical-align:top;">:</td><td><div>CGI/1.1</div></td></tr><tr><td style="font-weight:bold;vertical-align:top;">HTTP_ACCEPT</td><td style="vertical-align:top;">:</td><td><div>text/html,application/xhtml+xml,application/xml;q=0.9,*/*;q=0.8</div></td></tr><tr><td style="font-weight:bold;vertical-align:top;">HTTP_ACCEPT_ENCODING</td><td style="vertical-align:top;">:</td><td><div>gzip, deflate</div></td></tr><tr><td style="font-weight:bold;vertical-align:top;">HTTP_ACCEPT_LANGUAGE</td><td style="vertical-align:top;">:</td><td><div>en-US,en;q=0.5</div></td></tr><tr><td style="font-weight:bold;vertical-align:top;">HTTP_CACHE_CONTROL</td><td style="vertical-align:top;">:</td><td><div>max-age=0</div></td></tr><tr><td style="font-weight:bold;vertical-align:top;">HTTP_CONNECTION</td><td style="vertical-align:top;">:</td><td><div>keep-alive</div></td></tr><tr><td style="font-weight:bold;vertical-align:top;">HTTP_COOKIE</td><td style="vertical-align:top;">:</td><td><div>session_id_welcome=127.0.0.1-b40ffd1b-456e-4fe8-9698-53474e6d84bb; session_id_admin=127.0.0.1-d7bf07af-7949-41b4-9107-9658f86ccef8; session_id_radiomaps=127.0.0.1-b715c132-7d18-4c10-b20d-b5de2dd13b9d</div></td></tr><tr><td style="font-weight:bold;vertical-align:top;">HTTP_HOST</td><td style="vertical-align:top;">:</td><td><div>localhost</div></td></tr><tr><td style="font-weight:bold;vertical-align:top;">HTTP_REFERER</td><td style="vertical-align:top;">:</td><td><div>http://localhost/radiomaps/default/user/profile</div></td></tr><tr><td style="font-weight:bold;vertical-align:top;">HTTP_UPGRADE_INSECURE_REQUESTS</td><td style="vertical-align:top;">:</td><td><div>1</div></td></tr><tr><td style="font-weight:bold;vertical-align:top;">HTTP_USER_AGENT</td><td style="vertical-align:top;">:</td><td><div>Mozilla/5.0 (X11; Linux x86_64; rv:61.0) Gecko/20100101 Firefox/61.0</div></td></tr><tr><td style="font-weight:bold;vertical-align:top;">PATH_INFO</td><td style="vertical-align:top;">:</td><td><div>/radiomaps/default/index</div></td></tr><tr><td style="font-weight:bold;vertical-align:top;">PATH_TRANSLATED</td><td style="vertical-align:top;">:</td><td><div>/var/www/web2py/wsgihandler.py/radiomaps/default/index</div></td></tr><tr><td style="font-weight:bold;vertical-align:top;">QUERY_STRING</td><td style="vertical-align:top;">:</td><td><div></div></td></tr><tr><td style="font-weight:bold;vertical-align:top;">REMOTE_ADDR</td><td style="vertical-align:top;">:</td><td><div>127.0.0.1</div></td></tr><tr><td style="font-weight:bold;vertical-align:top;">REMOTE_PORT</td><td style="vertical-align:top;">:</td><td><div>40970</div></td></tr><tr><td style="font-weight:bold;vertical-align:top;">REQUEST_METHOD</td><td style="vertical-align:top;">:</td><td><div>GET</div></td></tr><tr><td style="font-weight:bold;vertical-align:top;">REQUEST_SCHEME</td><td style="vertical-align:top;">:</td><td><div>http</div></td></tr><tr><td style="font-weight:bold;vertical-align:top;">REQUEST_URI</td><td style="vertical-align:top;">:</td><td><div>/radiomaps/default/index</div></td></tr><tr><td style="font-weight:bold;vertical-align:top;">SCRIPT_FILENAME</td><td style="vertical-align:top;">:</td><td><div>/var/www/web2py/wsgihandler.py</div></td></tr><tr><td style="font-weight:bold;vertical-align:top;">SCRIPT_NAME</td><td style="vertical-align:top;">:</td><td><div></div></td></tr><tr><td style="font-weight:bold;vertical-align:top;">SERVER_ADDR</td><td style="vertical-align:top;">:</td><td><div>127.0.0.1</div></td></tr><tr><td style="font-weight:bold;vertical-align:top;">SERVER_ADMIN</td><td style="vertical-align:top;">:</td><td><div>[no address given]</div></td></tr><tr><td style="font-weight:bold;vertical-align:top;">SERVER_NAME</td><td style="vertical-align:top;">:</td><td><div>localhost</div></td></tr><tr><td style="font-weight:bold;vertical-align:top;">SERVER_PORT</td><td style="vertical-align:top;">:</td><td><div>80</div></td></tr><tr><td style="font-weight:bold;vertical-align:top;">SERVER_PROTOCOL</td><td style="vertical-align:top;">:</td><td><div>HTTP/1.1</div></td></tr><tr><td style="font-weight:bold;vertical-align:top;">SERVER_SIGNATURE</td><td style="vertical-align:top;">:</td><td><div>&lt;address&gt;Apache/2.4.18 (Ubuntu) Server at localhost Port 80&lt;/address&gt;\n</div></td></tr><tr><td style="font-weight:bold;vertical-align:top;">SERVER_SOFTWARE</td><td style="vertical-align:top;">:</td><td><div>Apache/2.4.18 (Ubuntu)</div></td></tr><tr><td style="font-weight:bold;vertical-align:top;">apache.version</td><td style="vertical-align:top;">:</td><td><div><table><tr><td><div>2</div></td></tr><tr><td><div>4</div></td></tr><tr><td><div>18</div></td></tr></table></div></td></tr><tr><td style="font-weight:bold;vertical-align:top;">apache_version</td><td style="vertical-align:top;">:</td><td><div><table><tr><td><div>2</div></td></tr><tr><td><div>4</div></td></tr><tr><td><div>18</div></td></tr></table></div></td></tr><tr><td style="font-weight:bold;vertical-align:top;">app_folders</td><td style="vertical-align:top;">:</td><td><div>set([&#x27;/var/www/web2py/applications/radiomaps/&#x27;, &#x27;/var/www/web2py/applications/welcome/&#x27;, &#x27;/var/www/web2py/applications/admin/&#x27;])</div></td></tr><tr><td style="font-weight:bold;vertical-align:top;">applications_parent</td><td style="vertical-align:top;">:</td><td><div>/var/www/web2py</div></td></tr><tr><td style="font-weight:bold;vertical-align:top;">context_document_root</td><td style="vertical-align:top;">:</td><td><div>/var/www/html</div></td></tr><tr><td style="font-weight:bold;vertical-align:top;">context_prefix</td><td style="vertical-align:top;">:</td><td><div></div></td></tr><tr><td style="font-weight:bold;vertical-align:top;">db_sessions</td><td style="vertical-align:top;">:</td><td><div>set([])</div></td></tr><tr><td style="font-weight:bold;vertical-align:top;">debugging</td><td style="vertical-align:top;">:</td><td><div>True</div></td></tr><tr><td style="font-weight:bold;vertical-align:top;">document_root</td><td style="vertical-align:top;">:</td><td><div>/var/www/html</div></td></tr><tr><td style="font-weight:bold;vertical-align:top;">gateway_interface</td><td style="vertical-align:top;">:</td><td><div>CGI/1.1</div></td></tr><tr><td style="font-weight:bold;vertical-align:top;">gluon_parent</td><td style="vertical-align:top;">:</td><td><div>/var/www/web2py</div></td></tr><tr><td style="font-weight:bold;vertical-align:top;">http_accept</td><td style="vertical-align:top;">:</td><td><div>text/html,application/xhtml+xml,application/xml;q=0.9,*/*;q=0.8</div></td></tr><tr><td style="font-weight:bold;vertical-align:top;">http_accept_encoding</td><td style="vertical-align:top;">:</td><td><div>gzip, deflate</div></td></tr><tr><td style="font-weight:bold;vertical-align:top;">http_accept_language</td><td style="vertical-align:top;">:</td><td><div>en-US,en;q=0.5</div></td></tr><tr><td style="font-weight:bold;vertical-align:top;">http_cache_control</td><td style="vertical-align:top;">:</td><td><div>max-age=0</div></td></tr><tr><td style="font-weight:bold;vertical-align:top;">http_connection</td><td style="vertical-align:top;">:</td><td><div>keep-alive</div></td></tr><tr><td style="font-weight:bold;vertical-align:top;">http_cookie</td><td style="vertical-align:top;">:</td><td><div>session_id_welcome=127.0.0.1-b40ffd1b-456e-4fe8-9698-53474e6d84bb; session_id_admin=127.0.0.1-d7bf07af-7949-41b4-9107-9658f86ccef8; session_id_radiomaps=127.0.0.1-b715c132-7d18-4c10-b20d-b5de2dd13b9d</div></td></tr><tr><td style="font-weight:bold;vertical-align:top;">http_host</td><td style="vertical-align:top;">:</td><td><div>localhost</div></td></tr><tr><td style="font-weight:bold;vertical-align:top;">http_referer</td><td style="vertical-align:top;">:</td><td><div>http://localhost/radiomaps/default/user/profile</div></td></tr><tr><td style="font-weight:bold;vertical-align:top;">http_upgrade_insecure_requests</td><td style="vertical-align:top;">:</td><td><div>1</div></td></tr><tr><td style="font-weight:bold;vertical-align:top;">http_user_agent</td><td style="vertical-align:top;">:</td><td><div>Mozilla/5.0 (X11; Linux x86_64; rv:61.0) Gecko/20100101 Firefox/61.0</div></td></tr><tr><td style="font-weight:bold;vertical-align:top;">is_jython</td><td style="vertical-align:top;">:</td><td><div>False</div></td></tr><tr><td style="font-weight:bold;vertical-align:top;">is_py2</td><td style="vertical-align:top;">:</td><td><div>True</div></td></tr><tr><td style="font-weight:bold;vertical-align:top;">is_pypy</td><td style="vertical-align:top;">:</td><td><div>False</div></td></tr><tr><td style="font-weight:bold;vertical-align:top;">is_source</td><td style="vertical-align:top;">:</td><td><div>True</div></td></tr><tr><td style="font-weight:bold;vertical-align:top;">local_hosts</td><td style="vertical-align:top;">:</td><td><div><table><tr><td><div>::ffff:127.0.0.1</div></td></tr><tr><td><div>::1</div></td></tr><tr><td><div>humberto-inspiron-PC</div></td></tr><tr><td><div>127.0.0.1</div></td></tr><tr><td><div>127.0.1.1</div></td></tr><tr><td><div>localhost</div></td></tr></table></div></td></tr><tr><td style="font-weight:bold;vertical-align:top;">mod_wsgi.application_group</td><td style="vertical-align:top;">:</td><td><div>web2py.example.com|</div></td></tr><tr><td style="font-weight:bold;vertical-align:top;">mod_wsgi.callable_object</td><td style="vertical-align:top;">:</td><td><div>application</div></td></tr><tr><td style="font-weight:bold;vertical-align:top;">mod_wsgi.daemon_connects</td><td style="vertical-align:top;">:</td><td><div>1</div></td></tr><tr><td style="font-weight:bold;vertical-align:top;">mod_wsgi.daemon_restarts</td><td style="vertical-align:top;">:</td><td><div>0</div></td></tr><tr><td style="font-weight:bold;vertical-align:top;">mod_wsgi.daemon_start</td><td style="vertical-align:top;">:</td><td><div>1534965841045916</div></td></tr><tr><td style="font-weight:bold;vertical-align:top;">mod_wsgi.enable_sendfile</td><td style="vertical-align:top;">:</td><td><div>0</div></td></tr><tr><td style="font-weight:bold;vertical-align:top;">mod_wsgi.handler_script</td><td style="vertical-align:top;">:</td><td><div></div></td></tr><tr><td style="font-weight:bold;vertical-align:top;">mod_wsgi.input_chunked</td><td style="vertical-align:top;">:</td><td><div>0</div></td></tr><tr><td style="font-weight:bold;vertical-align:top;">mod_wsgi.listener_host</td><td style="vertical-align:top;">:</td><td><div></div></td></tr><tr><td style="font-weight:bold;vertical-align:top;">mod_wsgi.listener_port</td><td style="vertical-align:top;">:</td><td><div>80</div></td></tr><tr><td style="font-weight:bold;vertical-align:top;">mod_wsgi.process_group</td><td style="vertical-align:top;">:</td><td><div>web2py</div></td></tr><tr><td style="font-weight:bold;vertical-align:top;">mod_wsgi.queue_start</td><td style="vertical-align:top;">:</td><td><div>1534965841045197</div></td></tr><tr><td style="font-weight:bold;vertical-align:top;">mod_wsgi.request_handler</td><td style="vertical-align:top;">:</td><td><div>wsgi-script</div></td></tr><tr><td style="font-weight:bold;vertical-align:top;">mod_wsgi.request_start</td><td style="vertical-align:top;">:</td><td><div>1534965841044764</div></td></tr><tr><td style="font-weight:bold;vertical-align:top;">mod_wsgi.script_reloading</td><td style="vertical-align:top;">:</td><td><div>1</div></td></tr><tr><td style="font-weight:bold;vertical-align:top;">mod_wsgi.script_start</td><td style="vertical-align:top;">:</td><td><div>1534965841046016</div></td></tr><tr><td style="font-weight:bold;vertical-align:top;">mod_wsgi.version</td><td style="vertical-align:top;">:</td><td><div><table><tr><td><div>4</div></td></tr><tr><td><div>3</div></td></tr><tr><td><div>0</div></td></tr></table></div></td></tr><tr><td style="font-weight:bold;vertical-align:top;">mod_wsgi_application_group</td><td style="vertical-align:top;">:</td><td><div>web2py.example.com|</div></td></tr><tr><td style="font-weight:bold;vertical-align:top;">mod_wsgi_callable_object</td><td style="vertical-align:top;">:</td><td><div>application</div></td></tr><tr><td style="font-weight:bold;vertical-align:top;">mod_wsgi_daemon_connects</td><td style="vertical-align:top;">:</td><td><div>1</div></td></tr><tr><td style="font-weight:bold;vertical-align:top;">mod_wsgi_daemon_restarts</td><td style="vertical-align:top;">:</td><td><div>0</div></td></tr><tr><td style="font-weight:bold;vertical-align:top;">mod_wsgi_daemon_start</td><td style="vertical-align:top;">:</td><td><div>1534965841045916</div></td></tr><tr><td style="font-weight:bold;vertical-align:top;">mod_wsgi_enable_sendfile</td><td style="vertical-align:top;">:</td><td><div>0</div></td></tr><tr><td style="font-weight:bold;vertical-align:top;">mod_wsgi_handler_script</td><td style="vertical-align:top;">:</td><td><div></div></td></tr><tr><td style="font-weight:bold;vertical-align:top;">mod_wsgi_input_chunked</td><td style="vertical-align:top;">:</td><td><div>0</div></td></tr><tr><td style="font-weight:bold;vertical-align:top;">mod_wsgi_listener_host</td><td style="vertical-align:top;">:</td><td><div></div></td></tr><tr><td style="font-weight:bold;vertical-align:top;">mod_wsgi_listener_port</td><td style="vertical-align:top;">:</td><td><div>80</div></td></tr><tr><td style="font-weight:bold;vertical-align:top;">mod_wsgi_process_group</td><td style="vertical-align:top;">:</td><td><div>web2py</div></td></tr><tr><td style="font-weight:bold;vertical-align:top;">mod_wsgi_queue_start</td><td style="vertical-align:top;">:</td><td><div>1534965841045197</div></td></tr><tr><td style="font-weight:bold;vertical-align:top;">mod_wsgi_request_handler</td><td style="vertical-align:top;">:</td><td><div>wsgi-script</div></td></tr><tr><td style="font-weight:bold;vertical-align:top;">mod_wsgi_request_start</td><td style="vertical-align:top;">:</td><td><div>1534965841044764</div></td></tr><tr><td style="font-weight:bold;vertical-align:top;">mod_wsgi_script_reloading</td><td style="vertical-align:top;">:</td><td><div>1</div></td></tr><tr><td style="font-weight:bold;vertical-align:top;">mod_wsgi_script_start</td><td style="vertical-align:top;">:</td><td><div>1534965841046016</div></td></tr><tr><td style="font-weight:bold;vertical-align:top;">mod_wsgi_version</td><td style="vertical-align:top;">:</td><td><div><table><tr><td><div>4</div></td></tr><tr><td><div>3</div></td></tr><tr><td><div>0</div></td></tr></table></div></td></tr><tr><td style="font-weight:bold;vertical-align:top;">path_info</td><td style="vertical-align:top;">:</td><td><div>/radiomaps/default/index</div></td></tr><tr><td style="font-weight:bold;vertical-align:top;">path_translated</td><td style="vertical-align:top;">:</td><td><div>/var/www/web2py/wsgihandler.py/radiomaps/default/index</div></td></tr><tr><td style="font-weight:bold;vertical-align:top;">query_string</td><td style="vertical-align:top;">:</td><td><div></div></td></tr><tr><td style="font-weight:bold;vertical-align:top;">remote_addr</td><td style="vertical-align:top;">:</td><td><div>127.0.0.1</div></td></tr><tr><td style="font-weight:bold;vertical-align:top;">remote_port</td><td style="vertical-align:top;">:</td><td><div>40970</div></td></tr><tr><td style="font-weight:bold;vertical-align:top;">request_method</td><td style="vertical-align:top;">:</td><td><div>GET</div></td></tr><tr><td style="font-weight:bold;vertical-align:top;">request_scheme</td><td style="vertical-align:top;">:</td><td><div>http</div></td></tr><tr><td style="font-weight:bold;vertical-align:top;">request_uri</td><td style="vertical-align:top;">:</td><td><div>/radiomaps/default/index</div></td></tr><tr><td style="font-weight:bold;vertical-align:top;">script_filename</td><td style="vertical-align:top;">:</td><td><div>/var/www/web2py/wsgihandler.py</div></td></tr><tr><td style="font-weight:bold;vertical-align:top;">script_name</td><td style="vertical-align:top;">:</td><td><div></div></td></tr><tr><td style="font-weight:bold;vertical-align:top;">server_addr</td><td style="vertical-align:top;">:</td><td><div>127.0.0.1</div></td></tr><tr><td style="font-weight:bold;vertical-align:top;">server_admin</td><td style="vertical-align:top;">:</td><td><div>[no address given]</div></td></tr><tr><td style="font-weight:bold;vertical-align:top;">server_name</td><td style="vertical-align:top;">:</td><td><div>localhost</div></td></tr><tr><td style="font-weight:bold;vertical-align:top;">server_port</td><td style="vertical-align:top;">:</td><td><div>80</div></td></tr><tr><td style="font-weight:bold;vertical-align:top;">server_protocol</td><td style="vertical-align:top;">:</td><td><div>HTTP/1.1</div></td></tr><tr><td style="font-weight:bold;vertical-align:top;">server_signature</td><td style="vertical-align:top;">:</td><td><div>&lt;address&gt;Apache/2.4.18 (Ubuntu) Server at localhost Port 80&lt;/address&gt;\n</div></td></tr><tr><td style="font-weight:bold;vertical-align:top;">server_software</td><td style="vertical-align:top;">:</td><td><div>Apache/2.4.18 (Ubuntu)</div></td></tr><tr><td style="font-weight:bold;vertical-align:top;">web2py_path</td><td style="vertical-align:top;">:</td><td><div>/var/www/web2py</div></td></tr><tr><td style="font-weight:bold;vertical-align:top;">web2py_version</td><td style="vertical-align:top;">:</td><td><div>2.17.1-stable+timestamp.2018.08.06.01.02.56</div></td></tr><tr><td style="font-weight:bold;vertical-align:top;">wsgi.errors</td><td style="vertical-align:top;">:</td><td><div>&lt;mod_wsgi.Log object at 0x7f77e0136540&gt;</div></td></tr><tr><td style="font-weight:bold;vertical-align:top;">wsgi.file_wrapper</td><td style="vertical-align:top;">:</td><td><div>&lt;type &#x27;mod_wsgi.FileWrapper&#x27;&gt;</div></td></tr><tr><td style="font-weight:bold;vertical-align:top;">wsgi.input</td><td style="vertical-align:top;">:</td><td><div>&lt;mod_wsgi.Input object at 0x7f77f1adeb70&gt;</div></td></tr><tr><td style="font-weight:bold;vertical-align:top;">wsgi.multiprocess</td><td style="vertical-align:top;">:</td><td><div>False</div></td></tr><tr><td style="font-weight:bold;vertical-align:top;">wsgi.multithread</td><td style="vertical-align:top;">:</td><td><div>True</div></td></tr><tr><td style="font-weight:bold;vertical-align:top;">wsgi.run_once</td><td style="vertical-align:top;">:</td><td><div>False</div></td></tr><tr><td style="font-weight:bold;vertical-align:top;">wsgi.url_scheme</td><td style="vertical-align:top;">:</td><td><div>http</div></td></tr><tr><td style="font-weight:bold;vertical-align:top;">wsgi.version</td><td style="vertical-align:top;">:</td><td><div><table><tr><td><div>1</div></td></tr><tr><td><div>0</div></td></tr></table></div></td></tr><tr><td style="font-weight:bold;vertical-align:top;">wsgi_errors</td><td style="vertical-align:top;">:</td><td><div>&lt;mod_wsgi.Log object at 0x7f77e0136540&gt;</div></td></tr><tr><td style="font-weight:bold;vertical-align:top;">wsgi_file_wrapper</td><td style="vertical-align:top;">:</td><td><div>&lt;type &#x27;mod_wsgi.FileWrapper&#x27;&gt;</div></td></tr><tr><td style="font-weight:bold;vertical-align:top;">wsgi_input</td><td style="vertical-align:top;">:</td><td><div>&lt;mod_wsgi.Input object at 0x7f77f1adeb70&gt;</div></td></tr><tr><td style="font-weight:bold;vertical-align:top;">wsgi_multiprocess</td><td style="vertical-align:top;">:</td><td><div>False</div></td></tr><tr><td style="font-weight:bold;vertical-align:top;">wsgi_multithread</td><td style="vertical-align:top;">:</td><td><div>True</div></td></tr><tr><td style="font-weight:bold;vertical-align:top;">wsgi_run_once</td><td style="vertical-align:top;">:</td><td><div>False</div></td></tr><tr><td style="font-weight:bold;vertical-align:top;">wsgi_url_scheme</td><td style="vertical-align:top;">:</td><td><div>http</div></td></tr><tr><td style="font-weight:bold;vertical-align:top;">wsgi_version</td><td style="vertical-align:top;">:</td><td><div><table><tr><td><div>1</div></td></tr><tr><td><div>0</div></td></tr></table></div></td></tr></table></div></td></tr><tr><td style="font-weight:bold;vertical-align:top;">extension</td><td style="vertical-align:top;">:</td><td><div>html</div></td></tr><tr><td style="font-weight:bold;vertical-align:top;">folder</td><td style="vertical-align:top;">:</td><td><div>/var/www/web2py/applications/radiomaps/</div></td></tr><tr><td style="font-weight:bold;vertical-align:top;">function</td><td style="vertical-align:top;">:</td><td><div>index</div></td></tr><tr><td style="font-weight:bold;vertical-align:top;">global_settings</td><td style="vertical-align:top;">:</td><td><div><table><tr><td style="font-weight:bold;vertical-align:top;">app_folders</td><td style="vertical-align:top;">:</td><td><div>set([&#x27;/var/www/web2py/applications/radiomaps/&#x27;, &#x27;/var/www/web2py/applications/welcome/&#x27;, &#x27;/var/www/web2py/applications/admin/&#x27;])</div></td></tr><tr><td style="font-weight:bold;vertical-align:top;">applications_parent</td><td style="vertical-align:top;">:</td><td><div>/var/www/web2py</div></td></tr><tr><td style="font-weight:bold;vertical-align:top;">db_sessions</td><td style="vertical-align:top;">:</td><td><div>set([])</div></td></tr><tr><td style="font-weight:bold;vertical-align:top;">debugging</td><td style="vertical-align:top;">:</td><td><div>True</div></td></tr><tr><td style="font-weight:bold;vertical-align:top;">gluon_parent</td><td style="vertical-align:top;">:</td><td><div>/var/www/web2py</div></td></tr><tr><td style="font-weight:bold;vertical-align:top;">is_jython</td><td style="vertical-align:top;">:</td><td><div>False</div></td></tr><tr><td style="font-weight:bold;vertical-align:top;">is_py2</td><td style="vertical-align:top;">:</td><td><div>True</div></td></tr><tr><td style="font-weight:bold;vertical-align:top;">is_pypy</td><td style="vertical-align:top;">:</td><td><div>False</div></td></tr><tr><td style="font-weight:bold;vertical-align:top;">is_source</td><td style="vertical-align:top;">:</td><td><div>True</div></td></tr><tr><td style="font-weight:bold;vertical-align:top;">local_hosts</td><td style="vertical-align:top;">:</td><td><div><table><tr><td><div>::ffff:127.0.0.1</div></td></tr><tr><td><div>::1</div></td></tr><tr><td><div>humberto-inspiron-PC</div></td></tr><tr><td><div>127.0.0.1</div></td></tr><tr><td><div>127.0.1.1</div></td></tr><tr><td><div>localhost</div></td></tr></table></div></td></tr><tr><td style="font-weight:bold;vertical-align:top;">web2py_version</td><td style="vertical-align:top;">:</td><td><div>2.17.1-stable+timestamp.2018.08.06.01.02.56</div></td></tr></table></div></td></tr><tr><td style="font-weight:bold;vertical-align:top;">is_https</td><td style="vertical-align:top;">:</td><td><div>False</div></td></tr><tr><td style="font-weight:bold;vertical-align:top;">is_local</td><td style="vertical-align:top;">:</td><td><div>True</div></td></tr><tr><td style="font-weight:bold;vertical-align:top;">is_restful</td><td style="vertical-align:top;">:</td><td><div>False</div></td></tr><tr><td style="font-weight:bold;vertical-align:top;">is_scheduler</td><td style="vertical-align:top;">:</td><td><div>False</div></td></tr><tr><td style="font-weight:bold;vertical-align:top;">is_shell</td><td style="vertical-align:top;">:</td><td><div>False</div></td></tr><tr><td style="font-weight:bold;vertical-align:top;">method</td><td style="vertical-align:top;">:</td><td><div>GET</div></td></tr><tr><td style="font-weight:bold;vertical-align:top;">now</td><td style="vertical-align:top;">:</td><td><div>datetime.datetime(2018, 8, 22, 15, 24, 1, 46560)</div></td></tr><tr><td style="font-weight:bold;vertical-align:top;">raw_args</td><td style="vertical-align:top;">:</td><td><div></div></td></tr><tr><td style="font-weight:bold;vertical-align:top;">raw_extension</td><td style="vertical-align:top;">:</td><td><div>None</div></td></tr><tr><td style="font-weight:bold;vertical-align:top;">url</td><td style="vertical-align:top;">:</td><td><div>/radiomaps/default/index</div></td></tr><tr><td style="font-weight:bold;vertical-align:top;">utcnow</td><td style="vertical-align:top;">:</td><td><div>datetime.datetime(2018, 8, 22, 19, 24, 1, 46620)</div></td></tr><tr><td style="font-weight:bold;vertical-align:top;">wsgi</td><td style="vertical-align:top;">:</td><td><div>&lt;gluon.main.LazyWSGI object at 0x7f77e264f590&gt;</div></td></tr></table></div>'
tRp60
sS'frames'
p61
(lp62
(dp63
S'file'
p64
S'/var/www/web2py/gluon/restricted.py'
p65
sS'dump'
p66
(dp67
S'environment'
p68
S"{'A': <class 'gluon.html.A'>, 'ANY_OF': <class 'gluon.validators.ANY_OF'>, 'ASSIGNJS': <function ASSIGNJS>, 'AppConfig': <function AppConfig>, 'Auth': <class 'gluon.tools.Auth'>, 'B': <class 'gluon.html.B'>, 'BEAUTIFY': <class 'gluon.html.BEAUTIFY'>, 'BODY': <class 'gluon.html.BODY'>, 'BR': <class 'gluon.html.BR'>, 'BUTTON': <class 'gluon.html.BUTTON'>, ...}"
p69
sS'ccode'
p70
S'<code object <module> at 0x7f77e1e357b0, file "/...ations/radiomaps/controllers/default.py", line 2>'
p71
ssS'lnum'
p72
I219
sS'lines'
p73
(dp74
I214
S'    if environment is None:'
p75
sI215
S'        environment = {}'
p76
sI216
S"    environment['__file__'] = layer"
p77
sI217
S"    environment['__name__'] = '__restricted__'"
p78
sI218
S'    try:'
p79
sI219
S'        exec(ccode, environment)'
p80
sI220
S'    except HTTP:'
p81
sI221
S'        raise'
p82
sI222
S'    except RestrictedError:'
p83
sI223
S'        # do not encapsulate (obfuscate) the original RestrictedError'
p84
ssS'call'
p85
S'(ccode=<code object <module> at 0x7f77e1e357b0, file "/...ations/radiomaps/controllers/default.py", line 2>, environment={\'A\': <class \'gluon.html.A\'>, \'ANY_OF\': <class \'gluon.validators.ANY_OF\'>, \'ASSIGNJS\': <function ASSIGNJS>, \'AppConfig\': <function AppConfig>, \'Auth\': <class \'gluon.tools.Auth\'>, \'B\': <class \'gluon.html.B\'>, \'BEAUTIFY\': <class \'gluon.html.BEAUTIFY\'>, \'BODY\': <class \'gluon.html.BODY\'>, \'BR\': <class \'gluon.html.BR\'>, \'BUTTON\': <class \'gluon.html.BUTTON\'>, ...}, layer=\'/var/www/web2py/applications/radiomaps/controllers/default.py\', scode=<code object <module> at 0x7f77e1e357b0, file "/...ations/radiomaps/controllers/default.py", line 2>)'
p86
sS'func'
p87
S'restricted'
p88
sa(dp89
g64
S'/var/www/web2py/applications/radiomaps/controllers/default.py'
p90
sg66
(dp91
sg72
I87
sg73
(dp92
I76
S'    return dict(form=auth())'
p93
sI77
S''
sI78
S'# ---- action to server uploaded static content (required) ---'
p94
sI79
S'@cache.action()'
p95
sI80
S'def download():'
p96
sI81
S'    """'
p97
sI82
S'    allows downloading of uploaded files'
p98
sI83
S'    http://..../[app]/default/download/[filename]'
p99
sI84
S'    """'
p100
sI85
S'    return response.download(request, db)'
p101
ssg85
S'()'
p102
sg87
S'<module>'
p103
sa(dp104
g64
S'/var/www/web2py/gluon/globals.py'
p105
sg66
(dp106
S'self'
p107
S'undefined'
p108
sS'f'
S'<function index>'
p109
ssg72
I421
sg73
(dp110
I416
S"        self.flash = ''            # used by the default view layout"
p111
sI417
S'        self.meta = Storage()      # used by web2py_ajax.html'
p112
sI418
S'        self.menu = []             # used by the default view layout'
p113
sI419
S'        self.files = []            # used by web2py_ajax.html'
p114
sI420
S'        self._vars = None'
p115
sI421
S'        self._caller = lambda f: f()'
p116
sI422
S'        self._view_environment = None'
p117
sI423
S'        self._custom_commit = None'
p118
sI424
S'        self._custom_rollback = None'
p119
sI425
S"        self.generic_patterns = ['*']"
p120
ssg85
S'(f=<function index>)'
p121
sg87
S'<lambda>'
p122
sa(dp123
g64
S'/var/www/web2py/applications/radiomaps/controllers/default.py'
p124
sg66
(dp125
S'builtindir'
p126
S'<built-in function dir>'
p127
sS'dd'
p128
g108
sS'ogr'
p129
g108
ssg72
I15
sg73
(dp130
I10
S'    if bd.lookup(request.client)!=None:'
p131
sI11
S'        pos = str(bd.lookup(request.client).to_dict()).replace("\'","")'
p132
sI12
S'    else:'
p133
sI13
S'        pos = str(request.client) + " n\xc3\xa3o consta no Banco GeoLite2-City"'
p134
sI14
S'    print pos'
p135
sI15
S'    dd = dir(ogr)'
p136
sI16
S'    #  {ip: 191.189.19.105, subdivisions: frozenset([AM]), location: (-3.1133, -60.0253), country: BR,timezone: America/Manaus, continent:SA}'
p137
sI17
S'    return locals()'
p138
sI18
S''
sI19
S'@request.restful()'
p139
ssg85
S'()'
p140
sg87
S'index'
p141
sasS'pyver'
p142
S'Python 2.7.12: /usr/bin/python (prefix: /usr)'
p143
sS'session'
p144
g59
(S's\x13\n\x00\x00<div><table><tr><td style="font-weight:bold;vertical-align:top;">auth</td><td style="vertical-align:top;">:</td><td><div><table><tr><td style="font-weight:bold;vertical-align:top;">expiration</td><td style="vertical-align:top;">:</td><td><div>3600</div></td></tr><tr><td style="font-weight:bold;vertical-align:top;">hmac_key</td><td style="vertical-align:top;">:</td><td><div>fc74b87d-d4ed-486f-85db-cd4cbf0c7edc</div></td></tr><tr><td style="font-weight:bold;vertical-align:top;">last_visit</td><td style="vertical-align:top;">:</td><td><div>datetime.datetime(2018, 8, 22, 15, 18, 36, 593622)</div></td></tr><tr><td style="font-weight:bold;vertical-align:top;">user</td><td style="vertical-align:top;">:</td><td><div><table><tr><td style="font-weight:bold;vertical-align:top;">email</td><td style="vertical-align:top;">:</td><td><div>humberto-xingu@live.com</div></td></tr><tr><td style="font-weight:bold;vertical-align:top;">first_name</td><td style="vertical-align:top;">:</td><td><div>Humberto</div></td></tr><tr><td style="font-weight:bold;vertical-align:top;">id</td><td style="vertical-align:top;">:</td><td><div>1L</div></td></tr><tr><td style="font-weight:bold;vertical-align:top;">last_name</td><td style="vertical-align:top;">:</td><td><div>Alves</div></td></tr><tr><td style="font-weight:bold;vertical-align:top;">registration_id</td><td style="vertical-align:top;">:</td><td><div></div></td></tr><tr><td style="font-weight:bold;vertical-align:top;">registration_key</td><td style="vertical-align:top;">:</td><td><div></div></td></tr><tr><td style="font-weight:bold;vertical-align:top;">reset_password_key</td><td style="vertical-align:top;">:</td><td><div></div></td></tr></table></div></td></tr><tr><td style="font-weight:bold;vertical-align:top;">user_groups</td><td style="vertical-align:top;">:</td><td><div><table><tr><td style="font-weight:bold;vertical-align:top;">1</td><td style="vertical-align:top;">:</td><td><div>user_1</div></td></tr><tr><td style="font-weight:bold;vertical-align:top;">2</td><td style="vertical-align:top;">:</td><td><div>wiki_editor</div></td></tr></table></div></td></tr></table></div></td></tr><tr><td style="font-weight:bold;vertical-align:top;">flash</td><td style="vertical-align:top;">:</td><td><div>None</div></td></tr><tr><td style="font-weight:bold;vertical-align:top;">last_orderby</td><td style="vertical-align:top;">:</td><td><div>None</div></td></tr><tr><td style="font-weight:bold;vertical-align:top;">last_query</td><td style="vertical-align:top;">:</td><td><div>db.auth_membership.id&gt;0</div></td></tr></table></div>'
tRp145
sS'etype'
p146
S"<type 'exceptions.NameError'>"
p147
sS'date'
p148
S'Wed Aug 22 15:24:01 2018'
p149
sS'response'
p150
g59
(S'sv%\x00\x00<div><table><tr><td style="font-weight:bold;vertical-align:top;">body</td><td style="vertical-align:top;">:</td><td><div>&lt;cStringIO.StringO object at 0x7f77e0132068&gt;</div></td></tr><tr><td style="font-weight:bold;vertical-align:top;">cookies</td><td style="vertical-align:top;">:</td><td><div><table><tr><td style="font-weight:bold;vertical-align:top;">session_id_radiomaps</td><td style="vertical-align:top;">:</td><td><div>127.0.0.1-b715c132-7d18-4c10-b20d-b5de2dd13b9d<table><tr><td style="font-weight:bold;vertical-align:top;">comment</td><td style="vertical-align:top;">:</td><td><div></div></td></tr><tr><td style="font-weight:bold;vertical-align:top;">domain</td><td style="vertical-align:top;">:</td><td><div></div></td></tr><tr><td style="font-weight:bold;vertical-align:top;">expires</td><td style="vertical-align:top;">:</td><td><div></div></td></tr><tr><td style="font-weight:bold;vertical-align:top;">httponly</td><td style="vertical-align:top;">:</td><td><div></div></td></tr><tr><td style="font-weight:bold;vertical-align:top;">max-age</td><td style="vertical-align:top;">:</td><td><div></div></td></tr><tr><td style="font-weight:bold;vertical-align:top;">path</td><td style="vertical-align:top;">:</td><td><div>/</div></td></tr><tr><td style="font-weight:bold;vertical-align:top;">secure</td><td style="vertical-align:top;">:</td><td><div></div></td></tr><tr><td style="font-weight:bold;vertical-align:top;">version</td><td style="vertical-align:top;">:</td><td><div></div></td></tr></table></div></td></tr></table></div></td></tr><tr><td style="font-weight:bold;vertical-align:top;">delimiters</td><td style="vertical-align:top;">:</td><td><div><table><tr><td><div>{{</div></td></tr><tr><td><div>}}</div></td></tr></table></div></td></tr><tr><td style="font-weight:bold;vertical-align:top;">files</td><td style="vertical-align:top;">:</td><td><div><table></table></div></td></tr><tr><td style="font-weight:bold;vertical-align:top;">flash</td><td style="vertical-align:top;">:</td><td><div></div></td></tr><tr><td style="font-weight:bold;vertical-align:top;">form_label_separator</td><td style="vertical-align:top;">:</td><td><div></div></td></tr><tr><td style="font-weight:bold;vertical-align:top;">formstyle</td><td style="vertical-align:top;">:</td><td><div>bootstrap4_inline</div></td></tr><tr><td style="font-weight:bold;vertical-align:top;">generic_patterns</td><td style="vertical-align:top;">:</td><td><div><table><tr><td><div>*</div></td></tr></table></div></td></tr><tr><td style="font-weight:bold;vertical-align:top;">google_analytics_id</td><td style="vertical-align:top;">:</td><td><div>None</div></td></tr><tr><td style="font-weight:bold;vertical-align:top;">headers</td><td style="vertical-align:top;">:</td><td><div><table><tr><td style="font-weight:bold;vertical-align:top;">X-Powered-By</td><td style="vertical-align:top;">:</td><td><div>web2py</div></td></tr></table></div></td></tr><tr><td style="font-weight:bold;vertical-align:top;">menu</td><td style="vertical-align:top;">:</td><td><div><table><tr><td><div><table><tr><td><div>Home</div></td></tr><tr><td><div>False</div></td></tr><tr><td><div>/radiomaps/default/index</div></td></tr><tr><td><div><table></table></div></td></tr></table></div></td></tr><tr><td><div><table><tr><td><div>My Sites</div></td></tr><tr><td><div>False</div></td></tr><tr><td><div>/admin/default/site</div></td></tr></table></div></td></tr><tr><td><div><table><tr><td><div>This App</div></td></tr><tr><td><div>False</div></td></tr><tr><td><div>#</div></td></tr><tr><td><div><table><tr><td><div><table><tr><td><div>Design</div></td></tr><tr><td><div>False</div></td></tr><tr><td><div>/admin/default/design/radiomaps</div></td></tr></table></div></td></tr><tr><td><div><table><tr><td><div>Controller</div></td></tr><tr><td><div>False</div></td></tr><tr><td><div>/admin/default/edit/radiomaps/controllers/default.py</div></td></tr></table></div></td></tr><tr><td><div><table><tr><td><div>View</div></td></tr><tr><td><div>False</div></td></tr><tr><td><div>/admin/default/edit/radiomaps/views/default/index.html</div></td></tr></table></div></td></tr><tr><td><div><table><tr><td><div>DB Model</div></td></tr><tr><td><div>False</div></td></tr><tr><td><div>/admin/default/edit/radiomaps/models/db.py</div></td></tr></table></div></td></tr><tr><td><div><table><tr><td><div>Menu Model</div></td></tr><tr><td><div>False</div></td></tr><tr><td><div>/admin/default/edit/radiomaps/models/menu.py</div></td></tr></table></div></td></tr><tr><td><div><table><tr><td><div>Config.ini</div></td></tr><tr><td><div>False</div></td></tr><tr><td><div>/admin/default/edit/radiomaps/private/appconfig.ini</div></td></tr></table></div></td></tr><tr><td><div><table><tr><td><div>Layout</div></td></tr><tr><td><div>False</div></td></tr><tr><td><div>/admin/default/edit/radiomaps/views/layout.html</div></td></tr></table></div></td></tr><tr><td><div><table><tr><td><div>Stylesheet</div></td></tr><tr><td><div>False</div></td></tr><tr><td><div>/admin/default/edit/radiomaps/static/css/web2py-bootstrap3.css</div></td></tr></table></div></td></tr><tr><td><div><table><tr><td><div>Database</div></td></tr><tr><td><div>False</div></td></tr><tr><td><div>/radiomaps/appadmin/index</div></td></tr></table></div></td></tr><tr><td><div><table><tr><td><div>Errors</div></td></tr><tr><td><div>False</div></td></tr><tr><td><div>/admin/default/errors/radiomaps</div></td></tr></table></div></td></tr><tr><td><div><table><tr><td><div>About</div></td></tr><tr><td><div>False</div></td></tr><tr><td><div>/admin/default/about/radiomaps</div></td></tr></table></div></td></tr></table></div></td></tr></table></div></td></tr></table></div></td></tr><tr><td style="font-weight:bold;vertical-align:top;">meta</td><td style="vertical-align:top;">:</td><td><div><table><tr><td style="font-weight:bold;vertical-align:top;">author</td><td style="vertical-align:top;">:</td><td><div>Your Name &lt;you@example.com&gt;</div></td></tr><tr><td style="font-weight:bold;vertical-align:top;">description</td><td style="vertical-align:top;">:</td><td><div>a cool new app</div></td></tr><tr><td style="font-weight:bold;vertical-align:top;">generator</td><td style="vertical-align:top;">:</td><td><div>Web2py Web Framework</div></td></tr><tr><td style="font-weight:bold;vertical-align:top;">keywords</td><td style="vertical-align:top;">:</td><td><div><table><tr><td><div>web2py</div></td></tr><tr><td><div>python</div></td></tr><tr><td><div>framework</div></td></tr></table></div></td></tr></table></div></td></tr><tr><td style="font-weight:bold;vertical-align:top;">models_to_run</td><td style="vertical-align:top;">:</td><td><div><table><tr><td><div>^\\w+\\.py$</div></td></tr><tr><td><div>^default/\\w+\\.py$</div></td></tr><tr><td><div>^default/index/\\w+\\.py$</div></td></tr></table></div></td></tr><tr><td style="font-weight:bold;vertical-align:top;">postprocessing</td><td style="vertical-align:top;">:</td><td><div><table></table></div></td></tr><tr><td style="font-weight:bold;vertical-align:top;">session_client</td><td style="vertical-align:top;">:</td><td><div>127.0.0.1</div></td></tr><tr><td style="font-weight:bold;vertical-align:top;">session_cookie_compression_level</td><td style="vertical-align:top;">:</td><td><div>None</div></td></tr><tr><td style="font-weight:bold;vertical-align:top;">session_cookie_expires</td><td style="vertical-align:top;">:</td><td><div>None</div></td></tr><tr><td style="font-weight:bold;vertical-align:top;">session_data_name</td><td style="vertical-align:top;">:</td><td><div>session_data_radiomaps</div></td></tr><tr><td style="font-weight:bold;vertical-align:top;">session_file</td><td style="vertical-align:top;">:</td><td><div>&lt;open file &#x27;/var/www/web2py/applications/radiomaps/sessions/10a/020/127.0.0.1-b715c132-7d18-4c10-b20d-b5de2dd13b9d&#x27;, mode &#x27;rb+&#x27; at 0x7f77e29731e0&gt;</div></td></tr><tr><td style="font-weight:bold;vertical-align:top;">session_filename</td><td style="vertical-align:top;">:</td><td><div>/var/www/web2py/applications/radiomaps/sessions/127.0.0.1-b715c132-7d18-4c10-b20d-b5de2dd13b9d</div></td></tr><tr><td style="font-weight:bold;vertical-align:top;">session_hash</td><td style="vertical-align:top;">:</td><td><div>331ba5266fad751bb2ed54c2ffe90972</div></td></tr><tr><td style="font-weight:bold;vertical-align:top;">session_id</td><td style="vertical-align:top;">:</td><td><div>127.0.0.1-b715c132-7d18-4c10-b20d-b5de2dd13b9d</div></td></tr><tr><td style="font-weight:bold;vertical-align:top;">session_id_name</td><td style="vertical-align:top;">:</td><td><div>session_id_radiomaps</div></td></tr><tr><td style="font-weight:bold;vertical-align:top;">session_locked</td><td style="vertical-align:top;">:</td><td><div>True</div></td></tr><tr><td style="font-weight:bold;vertical-align:top;">session_masterapp</td><td style="vertical-align:top;">:</td><td><div>radiomaps</div></td></tr><tr><td style="font-weight:bold;vertical-align:top;">session_new</td><td style="vertical-align:top;">:</td><td><div>False</div></td></tr><tr><td style="font-weight:bold;vertical-align:top;">session_storage_type</td><td style="vertical-align:top;">:</td><td><div>file</div></td></tr><tr><td style="font-weight:bold;vertical-align:top;">show_toolbar</td><td style="vertical-align:top;">:</td><td><div>False</div></td></tr><tr><td style="font-weight:bold;vertical-align:top;">status</td><td style="vertical-align:top;">:</td><td><div>200</div></td></tr><tr><td style="font-weight:bold;vertical-align:top;">view</td><td style="vertical-align:top;">:</td><td><div>default/index.html</div></td></tr></table></div>'
tRp151
sS'locals'
p152
(dp153
S'bd'
p154
S"<MaxMindDatabase '/var/www/web2py/GeoLite2-City.mmdb'>"
p155
sS'pos'
p156
S"'127.0.0.1 n\\xc3\\xa3o consta no Banco GeoLite2-City'"
p157
sssS'traceback'
p158
S'Traceback (most recent call last):\n  File "/var/www/web2py/gluon/restricted.py", line 219, in restricted\n    exec(ccode, environment)\n  File "/var/www/web2py/applications/radiomaps/controllers/default.py", line 87, in <module>\n  File "/var/www/web2py/gluon/globals.py", line 421, in <lambda>\n    self._caller = lambda f: f()\n  File "/var/www/web2py/applications/radiomaps/controllers/default.py", line 15, in index\n    dd = dir(ogr)\nNameError: global name \'ogr\' is not defined\n'
p159
s.