(dp1
S'output'
p2
S'<class \'psycopg2.ProgrammingError\'> relation "ippos" does not exist\nLINE 1: ...scricao", ST_AsGeoJSON(1,"ippos"."pos",15,0) FROM "ippos" OR...\n                                                             ^\n'
p3
sS'layer'
p4
S'/var/www/web2py/applications/radiomaps/controllers/default.py'
p5
sS'code'
p6
S'<code object <module> at 0x7ff9a34374b0, file "/var/www/web2py/applications/radiomaps/controllers/default.py", line 2>'
p7
sS'snapshot'
p8
(dp9
S'exception'
p10
(dp11
S'__module__'
p12
S"'psycopg2'"
p13
sS'__getslice__'
p14
S"<method-wrapper '__getslice__' of ProgrammingError object>"
p15
sS'__str__'
p16
S"<method-wrapper '__str__' of ProgrammingError object>"
p17
sS'__reduce__'
p18
S'<built-in method __reduce__ of ProgrammingError object>'
p19
sS'__dict__'
p20
S'{}'
p21
sS'__sizeof__'
p22
S'<built-in method __sizeof__ of ProgrammingError object>'
p23
sS'__weakref__'
p24
S'None'
p25
sS'message'
p26
S'\'relation "ippos" does not exist\\nLINE 1: ...scric...                                               ^\\n\''
p27
sS'__init__'
p28
S"<method-wrapper '__init__' of ProgrammingError object>"
p29
sS'__setattr__'
p30
S"<method-wrapper '__setattr__' of ProgrammingError object>"
p31
sS'__reduce_ex__'
p32
S'<built-in method __reduce_ex__ of ProgrammingError object>'
p33
sS'__new__'
p34
S'<built-in method __new__ of type object>'
p35
sS'diag'
p36
S'<psycopg2.extensions.Diagnostics object>'
p37
sS'__format__'
p38
S'<built-in method __format__ of ProgrammingError object>'
p39
sS'__class__'
p40
S"<class 'psycopg2.ProgrammingError'>"
p41
sS'pgerror'
p42
S'\'ERROR:  relation "ippos" does not exist\\nLINE 1: ...                                               ^\\n\''
p43
sS'__doc__'
p44
S"'Error related to database programming (SQL error, table not found etc).'"
p45
sS'__getitem__'
p46
S"<method-wrapper '__getitem__' of ProgrammingError object>"
p47
sS'__setstate__'
p48
S'<built-in method __setstate__ of ProgrammingError object>'
p49
sS'__getattribute__'
p50
S"<method-wrapper '__getattribute__' of ProgrammingError object>"
p51
sS'args'
p52
S'(\'relation "ippos" does not exist\\nLINE 1: ...scric...                                               ^\\n\',)'
p53
sS'__subclasshook__'
p54
S'<built-in method __subclasshook__ of type object>'
p55
sS'pgcode'
p56
S"'42P01'"
p57
sS'__unicode__'
p58
S'<built-in method __unicode__ of ProgrammingError object>'
p59
sS'cursor'
p60
S'<cursor object at 0x7ff9a3b42150; closed: 0>'
p61
sS'__delattr__'
p62
S"<method-wrapper '__delattr__' of ProgrammingError object>"
p63
sS'__repr__'
p64
S"<method-wrapper '__repr__' of ProgrammingError object>"
p65
sS'__hash__'
p66
S"<method-wrapper '__hash__' of ProgrammingError object>"
p67
ssS'evalue'
p68
S'relation "ippos" does not exist\nLINE 1: ...scricao", ST_AsGeoJSON(1,"ippos"."pos",15,0) FROM "ippos" OR...\n                                                             ^\n'
p69
sS'request'
p70
cgluon.html
XML_unpickle
p71
(S's\xbak\x00\x00<div><table><tr><td style="font-weight:bold;vertical-align:top;">ajax</td><td style="vertical-align:top;">:</td><td><div>False</div></td></tr><tr><td style="font-weight:bold;vertical-align:top;">application</td><td style="vertical-align:top;">:</td><td><div>radiomaps</div></td></tr><tr><td style="font-weight:bold;vertical-align:top;">args</td><td style="vertical-align:top;">:</td><td><div><table></table></div></td></tr><tr><td style="font-weight:bold;vertical-align:top;">cid</td><td style="vertical-align:top;">:</td><td><div>None</div></td></tr><tr><td style="font-weight:bold;vertical-align:top;">client</td><td style="vertical-align:top;">:</td><td><div>192.168.56.1</div></td></tr><tr><td style="font-weight:bold;vertical-align:top;">controller</td><td style="vertical-align:top;">:</td><td><div>default</div></td></tr><tr><td style="font-weight:bold;vertical-align:top;">cookies</td><td style="vertical-align:top;">:</td><td><div><table><tr><td style="font-weight:bold;vertical-align:top;">session_id_admin</td><td style="vertical-align:top;">:</td><td><div>192.168.56.1-779a492d-495e-482c-b073-bd1c6bef8eae<table><tr><td style="font-weight:bold;vertical-align:top;">comment</td><td style="vertical-align:top;">:</td><td><div></div></td></tr><tr><td style="font-weight:bold;vertical-align:top;">domain</td><td style="vertical-align:top;">:</td><td><div></div></td></tr><tr><td style="font-weight:bold;vertical-align:top;">expires</td><td style="vertical-align:top;">:</td><td><div></div></td></tr><tr><td style="font-weight:bold;vertical-align:top;">httponly</td><td style="vertical-align:top;">:</td><td><div></div></td></tr><tr><td style="font-weight:bold;vertical-align:top;">max-age</td><td style="vertical-align:top;">:</td><td><div></div></td></tr><tr><td style="font-weight:bold;vertical-align:top;">path</td><td style="vertical-align:top;">:</td><td><div></div></td></tr><tr><td style="font-weight:bold;vertical-align:top;">secure</td><td style="vertical-align:top;">:</td><td><div></div></td></tr><tr><td style="font-weight:bold;vertical-align:top;">version</td><td style="vertical-align:top;">:</td><td><div></div></td></tr></table></div></td></tr><tr><td style="font-weight:bold;vertical-align:top;">session_id_radiomaps</td><td style="vertical-align:top;">:</td><td><div>192.168.56.1-7e414813-1f91-46d8-a13f-b33d54e4e885<table><tr><td style="font-weight:bold;vertical-align:top;">comment</td><td style="vertical-align:top;">:</td><td><div></div></td></tr><tr><td style="font-weight:bold;vertical-align:top;">domain</td><td style="vertical-align:top;">:</td><td><div></div></td></tr><tr><td style="font-weight:bold;vertical-align:top;">expires</td><td style="vertical-align:top;">:</td><td><div></div></td></tr><tr><td style="font-weight:bold;vertical-align:top;">httponly</td><td style="vertical-align:top;">:</td><td><div></div></td></tr><tr><td style="font-weight:bold;vertical-align:top;">max-age</td><td style="vertical-align:top;">:</td><td><div></div></td></tr><tr><td style="font-weight:bold;vertical-align:top;">path</td><td style="vertical-align:top;">:</td><td><div></div></td></tr><tr><td style="font-weight:bold;vertical-align:top;">secure</td><td style="vertical-align:top;">:</td><td><div></div></td></tr><tr><td style="font-weight:bold;vertical-align:top;">version</td><td style="vertical-align:top;">:</td><td><div></div></td></tr></table></div></td></tr></table></div></td></tr><tr><td style="font-weight:bold;vertical-align:top;">env</td><td style="vertical-align:top;">:</td><td><div><table><tr><td style="font-weight:bold;vertical-align:top;">CONTEXT_DOCUMENT_ROOT</td><td style="vertical-align:top;">:</td><td><div>/var/www/html</div></td></tr><tr><td style="font-weight:bold;vertical-align:top;">CONTEXT_PREFIX</td><td style="vertical-align:top;">:</td><td><div></div></td></tr><tr><td style="font-weight:bold;vertical-align:top;">DOCUMENT_ROOT</td><td style="vertical-align:top;">:</td><td><div>/var/www/html</div></td></tr><tr><td style="font-weight:bold;vertical-align:top;">GATEWAY_INTERFACE</td><td style="vertical-align:top;">:</td><td><div>CGI/1.1</div></td></tr><tr><td style="font-weight:bold;vertical-align:top;">HTTP_ACCEPT</td><td style="vertical-align:top;">:</td><td><div>text/html,application/xhtml+xml,application/xml;q=0.9,*/*;q=0.8</div></td></tr><tr><td style="font-weight:bold;vertical-align:top;">HTTP_ACCEPT_ENCODING</td><td style="vertical-align:top;">:</td><td><div>gzip, deflate, br</div></td></tr><tr><td style="font-weight:bold;vertical-align:top;">HTTP_ACCEPT_LANGUAGE</td><td style="vertical-align:top;">:</td><td><div>pt-BR,pt;q=0.8,en-US;q=0.5,en;q=0.3</div></td></tr><tr><td style="font-weight:bold;vertical-align:top;">HTTP_CACHE_CONTROL</td><td style="vertical-align:top;">:</td><td><div>max-age=0</div></td></tr><tr><td style="font-weight:bold;vertical-align:top;">HTTP_CONNECTION</td><td style="vertical-align:top;">:</td><td><div>keep-alive</div></td></tr><tr><td style="font-weight:bold;vertical-align:top;">HTTP_COOKIE</td><td style="vertical-align:top;">:</td><td><div>session_id_radiomaps=192.168.56.1-7e414813-1f91-46d8-a13f-b33d54e4e885; session_id_admin=192.168.56.1-779a492d-495e-482c-b073-bd1c6bef8eae</div></td></tr><tr><td style="font-weight:bold;vertical-align:top;">HTTP_HOST</td><td style="vertical-align:top;">:</td><td><div>192.168.56.30</div></td></tr><tr><td style="font-weight:bold;vertical-align:top;">HTTP_UPGRADE_INSECURE_REQUESTS</td><td style="vertical-align:top;">:</td><td><div>1</div></td></tr><tr><td style="font-weight:bold;vertical-align:top;">HTTP_USER_AGENT</td><td style="vertical-align:top;">:</td><td><div>Mozilla/5.0 (Macintosh; Intel Mac OS X 10.13; rv:61.0) Gecko/20100101 Firefox/61.0</div></td></tr><tr><td style="font-weight:bold;vertical-align:top;">PATH_INFO</td><td style="vertical-align:top;">:</td><td><div>/</div></td></tr><tr><td style="font-weight:bold;vertical-align:top;">PATH_TRANSLATED</td><td style="vertical-align:top;">:</td><td><div>/var/www/web2py/wsgihandler.py/</div></td></tr><tr><td style="font-weight:bold;vertical-align:top;">QUERY_STRING</td><td style="vertical-align:top;">:</td><td><div></div></td></tr><tr><td style="font-weight:bold;vertical-align:top;">REMOTE_ADDR</td><td style="vertical-align:top;">:</td><td><div>192.168.56.1</div></td></tr><tr><td style="font-weight:bold;vertical-align:top;">REMOTE_PORT</td><td style="vertical-align:top;">:</td><td><div>53975</div></td></tr><tr><td style="font-weight:bold;vertical-align:top;">REQUEST_METHOD</td><td style="vertical-align:top;">:</td><td><div>GET</div></td></tr><tr><td style="font-weight:bold;vertical-align:top;">REQUEST_SCHEME</td><td style="vertical-align:top;">:</td><td><div>https</div></td></tr><tr><td style="font-weight:bold;vertical-align:top;">REQUEST_URI</td><td style="vertical-align:top;">:</td><td><div>/</div></td></tr><tr><td style="font-weight:bold;vertical-align:top;">SCRIPT_FILENAME</td><td style="vertical-align:top;">:</td><td><div>/var/www/web2py/wsgihandler.py</div></td></tr><tr><td style="font-weight:bold;vertical-align:top;">SCRIPT_NAME</td><td style="vertical-align:top;">:</td><td><div></div></td></tr><tr><td style="font-weight:bold;vertical-align:top;">SERVER_ADDR</td><td style="vertical-align:top;">:</td><td><div>192.168.56.30</div></td></tr><tr><td style="font-weight:bold;vertical-align:top;">SERVER_ADMIN</td><td style="vertical-align:top;">:</td><td><div>[no address given]</div></td></tr><tr><td style="font-weight:bold;vertical-align:top;">SERVER_NAME</td><td style="vertical-align:top;">:</td><td><div>192.168.56.30</div></td></tr><tr><td style="font-weight:bold;vertical-align:top;">SERVER_PORT</td><td style="vertical-align:top;">:</td><td><div>443</div></td></tr><tr><td style="font-weight:bold;vertical-align:top;">SERVER_PROTOCOL</td><td style="vertical-align:top;">:</td><td><div>HTTP/1.1</div></td></tr><tr><td style="font-weight:bold;vertical-align:top;">SERVER_SIGNATURE</td><td style="vertical-align:top;">:</td><td><div>&lt;address&gt;Apache/2.4.18 (Ubuntu) Server at 192.168.56.30 Port 443&lt;/address&gt;\n</div></td></tr><tr><td style="font-weight:bold;vertical-align:top;">SERVER_SOFTWARE</td><td style="vertical-align:top;">:</td><td><div>Apache/2.4.18 (Ubuntu)</div></td></tr><tr><td style="font-weight:bold;vertical-align:top;">apache.version</td><td style="vertical-align:top;">:</td><td><div><table><tr><td><div>2</div></td></tr><tr><td><div>4</div></td></tr><tr><td><div>18</div></td></tr></table></div></td></tr><tr><td style="font-weight:bold;vertical-align:top;">apache_version</td><td style="vertical-align:top;">:</td><td><div><table><tr><td><div>2</div></td></tr><tr><td><div>4</div></td></tr><tr><td><div>18</div></td></tr></table></div></td></tr><tr><td style="font-weight:bold;vertical-align:top;">app_folders</td><td style="vertical-align:top;">:</td><td><div>set([&#x27;/var/www/web2py/applications/radiomaps/&#x27;, &#x27;/var/www/web2py/applications/admin/&#x27;])</div></td></tr><tr><td style="font-weight:bold;vertical-align:top;">applications_parent</td><td style="vertical-align:top;">:</td><td><div>/var/www/web2py</div></td></tr><tr><td style="font-weight:bold;vertical-align:top;">context_document_root</td><td style="vertical-align:top;">:</td><td><div>/var/www/html</div></td></tr><tr><td style="font-weight:bold;vertical-align:top;">context_prefix</td><td style="vertical-align:top;">:</td><td><div></div></td></tr><tr><td style="font-weight:bold;vertical-align:top;">db_sessions</td><td style="vertical-align:top;">:</td><td><div>set([])</div></td></tr><tr><td style="font-weight:bold;vertical-align:top;">debugging</td><td style="vertical-align:top;">:</td><td><div>True</div></td></tr><tr><td style="font-weight:bold;vertical-align:top;">document_root</td><td style="vertical-align:top;">:</td><td><div>/var/www/html</div></td></tr><tr><td style="font-weight:bold;vertical-align:top;">gateway_interface</td><td style="vertical-align:top;">:</td><td><div>CGI/1.1</div></td></tr><tr><td style="font-weight:bold;vertical-align:top;">gluon_parent</td><td style="vertical-align:top;">:</td><td><div>/var/www/web2py</div></td></tr><tr><td style="font-weight:bold;vertical-align:top;">http_accept</td><td style="vertical-align:top;">:</td><td><div>text/html,application/xhtml+xml,application/xml;q=0.9,*/*;q=0.8</div></td></tr><tr><td style="font-weight:bold;vertical-align:top;">http_accept_encoding</td><td style="vertical-align:top;">:</td><td><div>gzip, deflate, br</div></td></tr><tr><td style="font-weight:bold;vertical-align:top;">http_accept_language</td><td style="vertical-align:top;">:</td><td><div>pt-BR,pt;q=0.8,en-US;q=0.5,en;q=0.3</div></td></tr><tr><td style="font-weight:bold;vertical-align:top;">http_cache_control</td><td style="vertical-align:top;">:</td><td><div>max-age=0</div></td></tr><tr><td style="font-weight:bold;vertical-align:top;">http_connection</td><td style="vertical-align:top;">:</td><td><div>keep-alive</div></td></tr><tr><td style="font-weight:bold;vertical-align:top;">http_cookie</td><td style="vertical-align:top;">:</td><td><div>session_id_radiomaps=192.168.56.1-7e414813-1f91-46d8-a13f-b33d54e4e885; session_id_admin=192.168.56.1-779a492d-495e-482c-b073-bd1c6bef8eae</div></td></tr><tr><td style="font-weight:bold;vertical-align:top;">http_host</td><td style="vertical-align:top;">:</td><td><div>192.168.56.30</div></td></tr><tr><td style="font-weight:bold;vertical-align:top;">http_upgrade_insecure_requests</td><td style="vertical-align:top;">:</td><td><div>1</div></td></tr><tr><td style="font-weight:bold;vertical-align:top;">http_user_agent</td><td style="vertical-align:top;">:</td><td><div>Mozilla/5.0 (Macintosh; Intel Mac OS X 10.13; rv:61.0) Gecko/20100101 Firefox/61.0</div></td></tr><tr><td style="font-weight:bold;vertical-align:top;">is_jython</td><td style="vertical-align:top;">:</td><td><div>False</div></td></tr><tr><td style="font-weight:bold;vertical-align:top;">is_py2</td><td style="vertical-align:top;">:</td><td><div>True</div></td></tr><tr><td style="font-weight:bold;vertical-align:top;">is_pypy</td><td style="vertical-align:top;">:</td><td><div>False</div></td></tr><tr><td style="font-weight:bold;vertical-align:top;">is_source</td><td style="vertical-align:top;">:</td><td><div>True</div></td></tr><tr><td style="font-weight:bold;vertical-align:top;">local_hosts</td><td style="vertical-align:top;">:</td><td><div><table><tr><td><div>::ffff:127.0.0.1</div></td></tr><tr><td><div>::1</div></td></tr><tr><td><div>192.168.56.30</div></td></tr><tr><td><div>ubuntu</div></td></tr><tr><td><div>127.0.1.1</div></td></tr><tr><td><div>127.0.0.1</div></td></tr></table></div></td></tr><tr><td style="font-weight:bold;vertical-align:top;">mod_wsgi.application_group</td><td style="vertical-align:top;">:</td><td><div>web2py.example.com|</div></td></tr><tr><td style="font-weight:bold;vertical-align:top;">mod_wsgi.callable_object</td><td style="vertical-align:top;">:</td><td><div>application</div></td></tr><tr><td style="font-weight:bold;vertical-align:top;">mod_wsgi.daemon_connects</td><td style="vertical-align:top;">:</td><td><div>1</div></td></tr><tr><td style="font-weight:bold;vertical-align:top;">mod_wsgi.daemon_restarts</td><td style="vertical-align:top;">:</td><td><div>0</div></td></tr><tr><td style="font-weight:bold;vertical-align:top;">mod_wsgi.daemon_start</td><td style="vertical-align:top;">:</td><td><div>1535235367809859</div></td></tr><tr><td style="font-weight:bold;vertical-align:top;">mod_wsgi.enable_sendfile</td><td style="vertical-align:top;">:</td><td><div>0</div></td></tr><tr><td style="font-weight:bold;vertical-align:top;">mod_wsgi.handler_script</td><td style="vertical-align:top;">:</td><td><div></div></td></tr><tr><td style="font-weight:bold;vertical-align:top;">mod_wsgi.input_chunked</td><td style="vertical-align:top;">:</td><td><div>0</div></td></tr><tr><td style="font-weight:bold;vertical-align:top;">mod_wsgi.listener_host</td><td style="vertical-align:top;">:</td><td><div></div></td></tr><tr><td style="font-weight:bold;vertical-align:top;">mod_wsgi.listener_port</td><td style="vertical-align:top;">:</td><td><div>443</div></td></tr><tr><td style="font-weight:bold;vertical-align:top;">mod_wsgi.process_group</td><td style="vertical-align:top;">:</td><td><div>web2py</div></td></tr><tr><td style="font-weight:bold;vertical-align:top;">mod_wsgi.queue_start</td><td style="vertical-align:top;">:</td><td><div>1535235367809576</div></td></tr><tr><td style="font-weight:bold;vertical-align:top;">mod_wsgi.request_handler</td><td style="vertical-align:top;">:</td><td><div>wsgi-script</div></td></tr><tr><td style="font-weight:bold;vertical-align:top;">mod_wsgi.request_start</td><td style="vertical-align:top;">:</td><td><div>1535235367809302</div></td></tr><tr><td style="font-weight:bold;vertical-align:top;">mod_wsgi.script_reloading</td><td style="vertical-align:top;">:</td><td><div>1</div></td></tr><tr><td style="font-weight:bold;vertical-align:top;">mod_wsgi.script_start</td><td style="vertical-align:top;">:</td><td><div>1535235367809899</div></td></tr><tr><td style="font-weight:bold;vertical-align:top;">mod_wsgi.version</td><td style="vertical-align:top;">:</td><td><div><table><tr><td><div>4</div></td></tr><tr><td><div>3</div></td></tr><tr><td><div>0</div></td></tr></table></div></td></tr><tr><td style="font-weight:bold;vertical-align:top;">mod_wsgi_application_group</td><td style="vertical-align:top;">:</td><td><div>web2py.example.com|</div></td></tr><tr><td style="font-weight:bold;vertical-align:top;">mod_wsgi_callable_object</td><td style="vertical-align:top;">:</td><td><div>application</div></td></tr><tr><td style="font-weight:bold;vertical-align:top;">mod_wsgi_daemon_connects</td><td style="vertical-align:top;">:</td><td><div>1</div></td></tr><tr><td style="font-weight:bold;vertical-align:top;">mod_wsgi_daemon_restarts</td><td style="vertical-align:top;">:</td><td><div>0</div></td></tr><tr><td style="font-weight:bold;vertical-align:top;">mod_wsgi_daemon_start</td><td style="vertical-align:top;">:</td><td><div>1535235367809859</div></td></tr><tr><td style="font-weight:bold;vertical-align:top;">mod_wsgi_enable_sendfile</td><td style="vertical-align:top;">:</td><td><div>0</div></td></tr><tr><td style="font-weight:bold;vertical-align:top;">mod_wsgi_handler_script</td><td style="vertical-align:top;">:</td><td><div></div></td></tr><tr><td style="font-weight:bold;vertical-align:top;">mod_wsgi_input_chunked</td><td style="vertical-align:top;">:</td><td><div>0</div></td></tr><tr><td style="font-weight:bold;vertical-align:top;">mod_wsgi_listener_host</td><td style="vertical-align:top;">:</td><td><div></div></td></tr><tr><td style="font-weight:bold;vertical-align:top;">mod_wsgi_listener_port</td><td style="vertical-align:top;">:</td><td><div>443</div></td></tr><tr><td style="font-weight:bold;vertical-align:top;">mod_wsgi_process_group</td><td style="vertical-align:top;">:</td><td><div>web2py</div></td></tr><tr><td style="font-weight:bold;vertical-align:top;">mod_wsgi_queue_start</td><td style="vertical-align:top;">:</td><td><div>1535235367809576</div></td></tr><tr><td style="font-weight:bold;vertical-align:top;">mod_wsgi_request_handler</td><td style="vertical-align:top;">:</td><td><div>wsgi-script</div></td></tr><tr><td style="font-weight:bold;vertical-align:top;">mod_wsgi_request_start</td><td style="vertical-align:top;">:</td><td><div>1535235367809302</div></td></tr><tr><td style="font-weight:bold;vertical-align:top;">mod_wsgi_script_reloading</td><td style="vertical-align:top;">:</td><td><div>1</div></td></tr><tr><td style="font-weight:bold;vertical-align:top;">mod_wsgi_script_start</td><td style="vertical-align:top;">:</td><td><div>1535235367809899</div></td></tr><tr><td style="font-weight:bold;vertical-align:top;">mod_wsgi_version</td><td style="vertical-align:top;">:</td><td><div><table><tr><td><div>4</div></td></tr><tr><td><div>3</div></td></tr><tr><td><div>0</div></td></tr></table></div></td></tr><tr><td style="font-weight:bold;vertical-align:top;">path_info</td><td style="vertical-align:top;">:</td><td><div>/</div></td></tr><tr><td style="font-weight:bold;vertical-align:top;">path_translated</td><td style="vertical-align:top;">:</td><td><div>/var/www/web2py/wsgihandler.py/</div></td></tr><tr><td style="font-weight:bold;vertical-align:top;">query_string</td><td style="vertical-align:top;">:</td><td><div></div></td></tr><tr><td style="font-weight:bold;vertical-align:top;">remote_addr</td><td style="vertical-align:top;">:</td><td><div>192.168.56.1</div></td></tr><tr><td style="font-weight:bold;vertical-align:top;">remote_port</td><td style="vertical-align:top;">:</td><td><div>53975</div></td></tr><tr><td style="font-weight:bold;vertical-align:top;">request_method</td><td style="vertical-align:top;">:</td><td><div>GET</div></td></tr><tr><td style="font-weight:bold;vertical-align:top;">request_scheme</td><td style="vertical-align:top;">:</td><td><div>https</div></td></tr><tr><td style="font-weight:bold;vertical-align:top;">request_uri</td><td style="vertical-align:top;">:</td><td><div>/radiomaps/default/index</div></td></tr><tr><td style="font-weight:bold;vertical-align:top;">script_filename</td><td style="vertical-align:top;">:</td><td><div>/var/www/web2py/wsgihandler.py</div></td></tr><tr><td style="font-weight:bold;vertical-align:top;">script_name</td><td style="vertical-align:top;">:</td><td><div></div></td></tr><tr><td style="font-weight:bold;vertical-align:top;">server_addr</td><td style="vertical-align:top;">:</td><td><div>192.168.56.30</div></td></tr><tr><td style="font-weight:bold;vertical-align:top;">server_admin</td><td style="vertical-align:top;">:</td><td><div>[no address given]</div></td></tr><tr><td style="font-weight:bold;vertical-align:top;">server_name</td><td style="vertical-align:top;">:</td><td><div>192.168.56.30</div></td></tr><tr><td style="font-weight:bold;vertical-align:top;">server_port</td><td style="vertical-align:top;">:</td><td><div>443</div></td></tr><tr><td style="font-weight:bold;vertical-align:top;">server_protocol</td><td style="vertical-align:top;">:</td><td><div>HTTP/1.1</div></td></tr><tr><td style="font-weight:bold;vertical-align:top;">server_signature</td><td style="vertical-align:top;">:</td><td><div>&lt;address&gt;Apache/2.4.18 (Ubuntu) Server at 192.168.56.30 Port 443&lt;/address&gt;\n</div></td></tr><tr><td style="font-weight:bold;vertical-align:top;">server_software</td><td style="vertical-align:top;">:</td><td><div>Apache/2.4.18 (Ubuntu)</div></td></tr><tr><td style="font-weight:bold;vertical-align:top;">web2py_original_uri</td><td style="vertical-align:top;">:</td><td><div>/</div></td></tr><tr><td style="font-weight:bold;vertical-align:top;">web2py_path</td><td style="vertical-align:top;">:</td><td><div>/var/www/web2py</div></td></tr><tr><td style="font-weight:bold;vertical-align:top;">web2py_version</td><td style="vertical-align:top;">:</td><td><div>2.17.1-stable+timestamp.2018.08.06.01.02.56</div></td></tr><tr><td style="font-weight:bold;vertical-align:top;">wsgi.errors</td><td style="vertical-align:top;">:</td><td><div>&lt;mod_wsgi.Log object at 0x7ff9a28db1e0&gt;</div></td></tr><tr><td style="font-weight:bold;vertical-align:top;">wsgi.file_wrapper</td><td style="vertical-align:top;">:</td><td><div>&lt;type &#x27;mod_wsgi.FileWrapper&#x27;&gt;</div></td></tr><tr><td style="font-weight:bold;vertical-align:top;">wsgi.input</td><td style="vertical-align:top;">:</td><td><div>&lt;mod_wsgi.Input object at 0x7ff9a30a8230&gt;</div></td></tr><tr><td style="font-weight:bold;vertical-align:top;">wsgi.multiprocess</td><td style="vertical-align:top;">:</td><td><div>False</div></td></tr><tr><td style="font-weight:bold;vertical-align:top;">wsgi.multithread</td><td style="vertical-align:top;">:</td><td><div>True</div></td></tr><tr><td style="font-weight:bold;vertical-align:top;">wsgi.run_once</td><td style="vertical-align:top;">:</td><td><div>False</div></td></tr><tr><td style="font-weight:bold;vertical-align:top;">wsgi.url_scheme</td><td style="vertical-align:top;">:</td><td><div>https</div></td></tr><tr><td style="font-weight:bold;vertical-align:top;">wsgi.version</td><td style="vertical-align:top;">:</td><td><div><table><tr><td><div>1</div></td></tr><tr><td><div>0</div></td></tr></table></div></td></tr><tr><td style="font-weight:bold;vertical-align:top;">wsgi_errors</td><td style="vertical-align:top;">:</td><td><div>&lt;mod_wsgi.Log object at 0x7ff9a28db1e0&gt;</div></td></tr><tr><td style="font-weight:bold;vertical-align:top;">wsgi_file_wrapper</td><td style="vertical-align:top;">:</td><td><div>&lt;type &#x27;mod_wsgi.FileWrapper&#x27;&gt;</div></td></tr><tr><td style="font-weight:bold;vertical-align:top;">wsgi_input</td><td style="vertical-align:top;">:</td><td><div>&lt;mod_wsgi.Input object at 0x7ff9a30a8230&gt;</div></td></tr><tr><td style="font-weight:bold;vertical-align:top;">wsgi_multiprocess</td><td style="vertical-align:top;">:</td><td><div>False</div></td></tr><tr><td style="font-weight:bold;vertical-align:top;">wsgi_multithread</td><td style="vertical-align:top;">:</td><td><div>True</div></td></tr><tr><td style="font-weight:bold;vertical-align:top;">wsgi_run_once</td><td style="vertical-align:top;">:</td><td><div>False</div></td></tr><tr><td style="font-weight:bold;vertical-align:top;">wsgi_url_scheme</td><td style="vertical-align:top;">:</td><td><div>https</div></td></tr><tr><td style="font-weight:bold;vertical-align:top;">wsgi_version</td><td style="vertical-align:top;">:</td><td><div><table><tr><td><div>1</div></td></tr><tr><td><div>0</div></td></tr></table></div></td></tr></table></div></td></tr><tr><td style="font-weight:bold;vertical-align:top;">extension</td><td style="vertical-align:top;">:</td><td><div>html</div></td></tr><tr><td style="font-weight:bold;vertical-align:top;">folder</td><td style="vertical-align:top;">:</td><td><div>/var/www/web2py/applications/radiomaps/</div></td></tr><tr><td style="font-weight:bold;vertical-align:top;">function</td><td style="vertical-align:top;">:</td><td><div>index</div></td></tr><tr><td style="font-weight:bold;vertical-align:top;">global_settings</td><td style="vertical-align:top;">:</td><td><div><table><tr><td style="font-weight:bold;vertical-align:top;">app_folders</td><td style="vertical-align:top;">:</td><td><div>set([&#x27;/var/www/web2py/applications/radiomaps/&#x27;, &#x27;/var/www/web2py/applications/admin/&#x27;])</div></td></tr><tr><td style="font-weight:bold;vertical-align:top;">applications_parent</td><td style="vertical-align:top;">:</td><td><div>/var/www/web2py</div></td></tr><tr><td style="font-weight:bold;vertical-align:top;">db_sessions</td><td style="vertical-align:top;">:</td><td><div>set([])</div></td></tr><tr><td style="font-weight:bold;vertical-align:top;">debugging</td><td style="vertical-align:top;">:</td><td><div>True</div></td></tr><tr><td style="font-weight:bold;vertical-align:top;">gluon_parent</td><td style="vertical-align:top;">:</td><td><div>/var/www/web2py</div></td></tr><tr><td style="font-weight:bold;vertical-align:top;">is_jython</td><td style="vertical-align:top;">:</td><td><div>False</div></td></tr><tr><td style="font-weight:bold;vertical-align:top;">is_py2</td><td style="vertical-align:top;">:</td><td><div>True</div></td></tr><tr><td style="font-weight:bold;vertical-align:top;">is_pypy</td><td style="vertical-align:top;">:</td><td><div>False</div></td></tr><tr><td style="font-weight:bold;vertical-align:top;">is_source</td><td style="vertical-align:top;">:</td><td><div>True</div></td></tr><tr><td style="font-weight:bold;vertical-align:top;">local_hosts</td><td style="vertical-align:top;">:</td><td><div><table><tr><td><div>::ffff:127.0.0.1</div></td></tr><tr><td><div>::1</div></td></tr><tr><td><div>192.168.56.30</div></td></tr><tr><td><div>ubuntu</div></td></tr><tr><td><div>127.0.1.1</div></td></tr><tr><td><div>127.0.0.1</div></td></tr></table></div></td></tr><tr><td style="font-weight:bold;vertical-align:top;">web2py_version</td><td style="vertical-align:top;">:</td><td><div>2.17.1-stable+timestamp.2018.08.06.01.02.56</div></td></tr></table></div></td></tr><tr><td style="font-weight:bold;vertical-align:top;">is_https</td><td style="vertical-align:top;">:</td><td><div>True</div></td></tr><tr><td style="font-weight:bold;vertical-align:top;">is_local</td><td style="vertical-align:top;">:</td><td><div>False</div></td></tr><tr><td style="font-weight:bold;vertical-align:top;">is_restful</td><td style="vertical-align:top;">:</td><td><div>False</div></td></tr><tr><td style="font-weight:bold;vertical-align:top;">is_scheduler</td><td style="vertical-align:top;">:</td><td><div>False</div></td></tr><tr><td style="font-weight:bold;vertical-align:top;">is_shell</td><td style="vertical-align:top;">:</td><td><div>False</div></td></tr><tr><td style="font-weight:bold;vertical-align:top;">method</td><td style="vertical-align:top;">:</td><td><div>GET</div></td></tr><tr><td style="font-weight:bold;vertical-align:top;">now</td><td style="vertical-align:top;">:</td><td><div>datetime.datetime(2018, 8, 25, 18, 16, 7, 810099)</div></td></tr><tr><td style="font-weight:bold;vertical-align:top;">url</td><td style="vertical-align:top;">:</td><td><div>/</div></td></tr><tr><td style="font-weight:bold;vertical-align:top;">utcnow</td><td style="vertical-align:top;">:</td><td><div>datetime.datetime(2018, 8, 25, 22, 16, 7, 810127)</div></td></tr><tr><td style="font-weight:bold;vertical-align:top;">wsgi</td><td style="vertical-align:top;">:</td><td><div>&lt;gluon.main.LazyWSGI object at 0x7ff9a30a88d0&gt;</div></td></tr></table></div>'
tRp72
sS'frames'
p73
(lp74
(dp75
S'file'
p76
S'/var/www/web2py/gluon/restricted.py'
p77
sS'dump'
p78
(dp79
S'environment'
p80
S"{'A': <class 'gluon.html.A'>, 'ANY_OF': <class 'gluon.validators.ANY_OF'>, 'ASSIGNJS': <function ASSIGNJS>, 'AppConfig': <function AppConfig>, 'Auth': <class 'gluon.tools.Auth'>, 'B': <class 'gluon.html.B'>, 'BEAUTIFY': <class 'gluon.html.BEAUTIFY'>, 'BODY': <class 'gluon.html.BODY'>, 'BR': <class 'gluon.html.BR'>, 'BUTTON': <class 'gluon.html.BUTTON'>, ...}"
p81
sS'ccode'
p82
S'<code object <module> at 0x7ff9a34374b0, file "/...ations/radiomaps/controllers/default.py", line 2>'
p83
ssS'lnum'
p84
I219
sS'lines'
p85
(dp86
I214
S'    if environment is None:'
p87
sI215
S'        environment = {}'
p88
sI216
S"    environment['__file__'] = layer"
p89
sI217
S"    environment['__name__'] = '__restricted__'"
p90
sI218
S'    try:'
p91
sI219
S'        exec(ccode, environment)'
p92
sI220
S'    except HTTP:'
p93
sI221
S'        raise'
p94
sI222
S'    except RestrictedError:'
p95
sI223
S'        # do not encapsulate (obfuscate) the original RestrictedError'
p96
ssS'call'
p97
S'(ccode=<code object <module> at 0x7ff9a34374b0, file "/...ations/radiomaps/controllers/default.py", line 2>, environment={\'A\': <class \'gluon.html.A\'>, \'ANY_OF\': <class \'gluon.validators.ANY_OF\'>, \'ASSIGNJS\': <function ASSIGNJS>, \'AppConfig\': <function AppConfig>, \'Auth\': <class \'gluon.tools.Auth\'>, \'B\': <class \'gluon.html.B\'>, \'BEAUTIFY\': <class \'gluon.html.BEAUTIFY\'>, \'BODY\': <class \'gluon.html.BODY\'>, \'BR\': <class \'gluon.html.BR\'>, \'BUTTON\': <class \'gluon.html.BUTTON\'>, ...}, layer=\'/var/www/web2py/applications/radiomaps/controllers/default.py\', scode=<code object <module> at 0x7ff9a34374b0, file "/...ations/radiomaps/controllers/default.py", line 2>)'
p98
sS'func'
p99
S'restricted'
p100
sa(dp101
g76
S'/var/www/web2py/applications/radiomaps/controllers/default.py'
p102
sg78
(dp103
sg84
I132
sg85
(dp104
I128
S''
sI129
S'def call():'
p105
sI130
S'    return service()'
p106
sI121
S'@cache.action()'
p107
sI122
S'def download():'
p108
sI123
S'    """'
p109
sI124
S'    allows downloading of uploaded files'
p110
sI125
S'    http://..../[app]/default/download/[filename]'
p111
sI126
S'    """'
p112
sI127
S'    return response.download(request, db)'
p113
ssg97
S'()'
p114
sg99
S'<module>'
p115
sa(dp116
g76
S'/var/www/web2py/gluon/globals.py'
p117
sg78
(dp118
S'self'
p119
S'undefined'
p120
sS'f'
S'<function index>'
p121
ssg84
I421
sg85
(dp122
I416
S"        self.flash = ''            # used by the default view layout"
p123
sI417
S'        self.meta = Storage()      # used by web2py_ajax.html'
p124
sI418
S'        self.menu = []             # used by the default view layout'
p125
sI419
S'        self.files = []            # used by web2py_ajax.html'
p126
sI420
S'        self._vars = None'
p127
sI421
S'        self._caller = lambda f: f()'
p128
sI422
S'        self._view_environment = None'
p129
sI423
S'        self._custom_commit = None'
p130
sI424
S'        self._custom_rollback = None'
p131
sI425
S"        self.generic_patterns = ['*']"
p132
ssg97
S'(f=<function index>)'
p133
sg99
S'<lambda>'
p134
sa(dp135
g76
S'/var/www/web2py/applications/radiomaps/controllers/default.py'
p136
sg78
(dp137
S'geo_json'
p138
g120
sS'global get_geojson2'
p139
S'<function get_geojson2>'
p140
ssg84
I17
sg85
(dp141
I12
S''
sI13
S'    pos = tools.get_pos(request.client)'
p142
sI14
S''
sI15
S'    layer="tiger-ny"#"tasmania"#"tiger-ny"'
p143
sI16
S'    extent = tools.get_extent(layer)'
p144
sI17
S'    geo_json = get_geojson2()'
p145
sI18
S'    print geo_json'
p146
sI19
S'#     tools.pgis()'
p147
sI20
S''
sI21
S'    sys.stdout = sys.__stdout__ # Reset to the standard output'
p148
ssg97
S'()'
p149
sg99
S'index'
p150
sa(dp151
g76
S'/var/www/web2py/applications/radiomaps/controllers/default.py'
p152
sg78
(dp153
S'orderby'
p154
g120
sS'rows'
p155
g120
sS'dbpg.ippos.id'
p156
S'<pydal.objects.Field object>'
p157
sS'global dbpg'
p158
S'<DAL uri="postgres2:psycopg2:******@localhost:5432/geoserver">'
p159
sS'dbpg.ippos.pos.st_asgeojson'
p160
S'<bound method Field.st_asgeojson of <pydal.objects.Field object>>'
p161
sS').select'
p162
g120
sS'dbpg.ippos'
p163
S'<Table ippos (id, ip, descricao, pos)>'
p164
sS'dbpg.ippos.ip'
p165
S'<pydal.objects.Field object>'
p166
sS'dbpg.ippos.pos'
p167
S'<pydal.objects.Field object>'
p168
sS'dbpg.ippos.descricao'
p169
S'<pydal.objects.Field object>'
p170
ssg84
I52
sg85
(dp171
I47
S'                    "geometry": loads_json(r[dbpg.ippos.pos.st_asgeojson()])} for r in rows]'
p172
sI48
S'        return response.json({"type": "FeatureCollection", \'features\': features})'
p173
sI49
S'    return locals()'
p174
sI50
S''
sI51
S'def get_geojson2():'
p175
sI52
S'    rows=dbpg().select(dbpg.ippos.ip, dbpg.ippos.descricao, dbpg.ippos.pos.st_asgeojson(), orderby=dbpg.ippos.id)'
p176
sI53
S'    features= [{"type": "Feature",'
p177
sI54
S'                "properties": {'
p178
sI55
S'                "popupContent": r[dbpg.ippos.ip]'
p179
sI56
S'                },'
p180
ssg97
S'()'
p181
sg99
S'get_geojson2'
p182
sa(dp183
g76
S'/var/www/web2py/gluon/packages/dal/pydal/objects.py'
p184
sg78
(dp185
S'self.query'
p186
S'None'
p187
sS'adapter.select'
p188
S'<bound method PostgrePsycoNew.select of <pydal.adapters.postgres.PostgrePsycoNew object>>'
p189
sS'fields'
p190
S'[<pydal.objects.Field object>, <pydal.objects.Field object>, <pydal.objects.Expression object>]'
p191
sS'adapter'
p192
S'<pydal.adapters.postgres.PostgrePsycoNew object>'
p193
sS'attributes'
p194
S"{'orderby': <pydal.objects.Field object>}"
p195
sS'self'
p196
S'<Set None>'
p197
ssg84
I2277
sg85
(dp198
I2272
S"                                    attributes.get('join', None),"
p199
sI2273
S"                                    attributes.get('left', None),"
p200
sI2274
S"                                    attributes.get('orderby', None),"
p201
sI2275
S"                                    attributes.get('groupby', None))"
p202
sI2276
S'        fields = adapter.expand_all(fields, tablenames)'
p203
sI2277
S'        return adapter.select(self.query, fields, attributes)'
p204
sI2278
S''
sI2279
S'    def iterselect(self, *fields, **attributes):'
p205
sI2280
S'        adapter = self.db._adapter'
p206
sI2281
S'        tablenames = adapter.tables(self.query,'
p207
ssg97
S"(self=<Set None>, *fields=[<pydal.objects.Field object>, <pydal.objects.Field object>, <pydal.objects.Expression object>], **attributes={'orderby': <pydal.objects.Field object>})"
p208
sg99
S'select'
p209
sa(dp210
g76
S'/var/www/web2py/gluon/packages/dal/pydal/adapters/base.py'
p211
sg78
(dp212
S'self._select_aux'
p213
S'<bound method PostgrePsycoNew._select_aux of <pydal.adapters.postgres.PostgrePsycoNew object>>'
p214
sS'fields'
p215
S'[<pydal.objects.Field object>, <pydal.objects.Field object>, <pydal.objects.Expression object>]'
p216
sS'self'
p217
S'<pydal.adapters.postgres.PostgrePsycoNew object>'
p218
sS'sql'
p219
S'\'SELECT "ippos"."ip", "ippos"."descricao", ST_AsG..."."pos",15,0) FROM "ippos" ORDER BY "ippos"."id";\''
p220
sS'attributes'
p221
S"{'orderby': <pydal.objects.Field object>}"
p222
sS'colnames'
p223
S'[\'ippos.ip\', \'ippos.descricao\', \'ST_AsGeoJSON(1,"ippos"."pos",15,0)\']'
p224
ssg84
I763
sg85
(dp225
I758
S'        colnames, sql = self._select_wcols(query, fields, **attributes)'
p226
sI759
S"        cache = attributes.get('cache', None)"
p227
sI760
S"        if cache and attributes.get('cacheable', False):"
p228
sI761
S'            return self._cached_select('
p229
sI762
S'                cache, sql, fields, attributes, colnames)'
p230
sI763
S'        return self._select_aux(sql, fields, attributes, colnames)'
p231
sI764
S''
sI765
S'    def iterselect(self, query, fields, attributes):'
p232
sI766
S'        colnames, sql = self._select_wcols(query, fields, **attributes)'
p233
sI767
S"        cacheable = attributes.get('cacheable', False)"
p234
ssg97
S"(self=<pydal.adapters.postgres.PostgrePsycoNew object>, query=None, fields=[<pydal.objects.Field object>, <pydal.objects.Field object>, <pydal.objects.Expression object>], attributes={'orderby': <pydal.objects.Field object>})"
p235
sg99
g209
sa(dp236
g76
S'/var/www/web2py/gluon/packages/dal/pydal/adapters/base.py'
p237
sg78
(dp238
S'self'
p239
S'<pydal.adapters.postgres.PostgrePsycoNew object>'
p240
sS'rows'
p241
g120
sS'self._select_aux_execute'
p242
S'<bound method PostgrePsycoNew._select_aux_execut...<pydal.adapters.postgres.PostgrePsycoNew object>>'
p243
sS'sql'
p244
S'\'SELECT "ippos"."ip", "ippos"."descricao", ST_AsG..."."pos",15,0) FROM "ippos" ORDER BY "ippos"."id";\''
p245
ssg84
I719
sg85
(dp246
I714
S'        return self.cursor.fetchall()'
p247
sI715
S''
sI716
S'    def _select_aux(self, sql, fields, attributes, colnames):'
p248
sI717
S"        cache = attributes.get('cache', None)"
p249
sI718
S'        if not cache:'
p250
sI719
S'            rows = self._select_aux_execute(sql)'
p251
sI720
S'        else:'
p252
sI721
S'            if isinstance(cache, dict):'
p253
sI722
S"                cache_model = cache['model']"
p254
sI723
S"                time_expire = cache['expiration']"
p255
ssg97
S'(self=<pydal.adapters.postgres.PostgrePsycoNew object>, sql=\'SELECT "ippos"."ip", "ippos"."descricao", ST_AsG..."."pos",15,0) FROM "ippos" ORDER BY "ippos"."id";\', fields=[<pydal.objects.Field object>, <pydal.objects.Field object>, <pydal.objects.Expression object>], attributes={\'orderby\': <pydal.objects.Field object>}, colnames=[\'ippos.ip\', \'ippos.descricao\', \'ST_AsGeoJSON(1,"ippos"."pos",15,0)\'])'
p256
sg99
S'_select_aux'
p257
sa(dp258
g76
S'/var/www/web2py/gluon/packages/dal/pydal/adapters/base.py'
p259
sg78
(dp260
S'self'
p261
S'<pydal.adapters.postgres.PostgrePsycoNew object>'
p262
sS'self.execute'
p263
S'<bound method PostgrePsycoNew.wrap of <pydal.adapters.postgres.PostgrePsycoNew object>>'
p264
sS'sql'
p265
S'\'SELECT "ippos"."ip", "ippos"."descricao", ST_AsG..."."pos",15,0) FROM "ippos" ORDER BY "ippos"."id";\''
p266
ssg84
I713
sg85
(dp267
I708
S''
sI709
S'    def nested_select(self, query, fields, attributes):'
p268
sI710
S'        return Select(self.db, query, fields, attributes)'
p269
sI711
S''
sI712
S'    def _select_aux_execute(self, sql):'
p270
sI713
S'        self.execute(sql)'
p271
sI714
S'        return self.cursor.fetchall()'
p272
sI715
S''
sI716
S'    def _select_aux(self, sql, fields, attributes, colnames):'
p273
sI717
S"        cache = attributes.get('cache', None)"
p274
ssg97
S'(self=<pydal.adapters.postgres.PostgrePsycoNew object>, sql=\'SELECT "ippos"."ip", "ippos"."descricao", ST_AsG..."."pos",15,0) FROM "ippos" ORDER BY "ippos"."id";\')'
p275
sg99
S'_select_aux_execute'
p276
sa(dp277
g76
S'/var/www/web2py/gluon/packages/dal/pydal/adapters/__init__.py'
p278
sg78
(dp279
S'kwargs'
p280
g21
sS'args'
p281
S'(<pydal.adapters.postgres.PostgrePsycoNew object>, \'SELECT "ippos"."ip", "ippos"."descricao", ST_AsG..."."pos",15,0) FROM "ippos" ORDER BY "ippos"."id";\')'
p282
sS'f'
S'<function execute>'
p283
ssg84
I67
sg85
(dp284
I64
S'            if len(args) > 1:'
p285
sI65
S'                raise ValueError(args[1])'
p286
sI66
S"            raise RuntimeError('no connection available')"
p287
sI67
S'        return f(*args, **kwargs)'
p288
sI68
S'    return wrap'
p289
sI69
S''
sI70
S''
sI71
S'from .base import SQLAdapter, NoSQLAdapter'
p290
sI62
S'    def wrap(*args, **kwargs):'
p291
sI63
S'        if not args[0].connection:'
p292
ssg97
S'(*args=(<pydal.adapters.postgres.PostgrePsycoNew object>, \'SELECT "ippos"."ip", "ippos"."descricao", ST_AsG..."."pos",15,0) FROM "ippos" ORDER BY "ippos"."id";\'), **kwargs={})'
p293
sg99
S'wrap'
p294
sa(dp295
g76
S'/var/www/web2py/gluon/packages/dal/pydal/adapters/base.py'
p296
sg78
(dp297
S'rv'
p298
g120
sS'self'
p299
S'<pydal.adapters.postgres.PostgrePsycoNew object>'
p300
sS'args'
p301
S'(\'SELECT "ippos"."ip", "ippos"."descricao", ST_AsG..."."pos",15,0) FROM "ippos" ORDER BY "ippos"."id";\',)'
p302
sS'self.cursor'
p303
S'<cursor object at 0x7ff9a3b42150; closed: 0>'
p304
sS'command'
p305
S'\'SELECT "ippos"."ip", "ippos"."descricao", ST_AsG..."."pos",15,0) FROM "ippos" ORDER BY "ippos"."id";\''
p306
sS'self.cursor.execute'
p307
S'<built-in method execute of psycopg2.extensions.cursor object>'
p308
sS'kwargs'
p309
g21
ssg84
I413
sg85
(dp310
I416
S'        return rv'
p311
sI417
S''
sI408
S'    def execute(self, *args, **kwargs):'
p312
sI409
S'        command = self.filter_sql_command(args[0])'
p313
sI410
S'        handlers = self._build_handlers_for_execution()'
p314
sI411
S'        for handler in handlers:'
p315
sI412
S'            handler.before_execute(command)'
p316
sI413
S'        rv = self.cursor.execute(command, *args[1:], **kwargs)'
p317
sI414
S'        for handler in handlers:'
p318
sI415
S'            handler.after_execute(command)'
p319
ssg97
S'(self=<pydal.adapters.postgres.PostgrePsycoNew object>, *args=(\'SELECT "ippos"."ip", "ippos"."descricao", ST_AsG..."."pos",15,0) FROM "ippos" ORDER BY "ippos"."id";\',), **kwargs={})'
p320
sg99
S'execute'
p321
sasS'pyver'
p322
S'Python 2.7.12: /usr/bin/python (prefix: /usr)'
p323
sS'session'
p324
g71
(S's\x1a\x00\x00\x00<div><table></table></div>'
tRp325
sS'etype'
p326
S"<class 'psycopg2.ProgrammingError'>"
p327
sS'date'
p328
S'Sat Aug 25 18:16:08 2018'
p329
sS'response'
p330
g71
(S's\x00$\x00\x00<div><table><tr><td style="font-weight:bold;vertical-align:top;">body</td><td style="vertical-align:top;">:</td><td><div>&lt;cStringIO.StringO object at 0x7ff9a2828c00&gt;</div></td></tr><tr><td style="font-weight:bold;vertical-align:top;">cookies</td><td style="vertical-align:top;">:</td><td><div><table><tr><td style="font-weight:bold;vertical-align:top;">session_id_radiomaps</td><td style="vertical-align:top;">:</td><td><div>192.168.56.1-fba90573-7ddb-4524-871c-f701092af9b0<table><tr><td style="font-weight:bold;vertical-align:top;">comment</td><td style="vertical-align:top;">:</td><td><div></div></td></tr><tr><td style="font-weight:bold;vertical-align:top;">domain</td><td style="vertical-align:top;">:</td><td><div></div></td></tr><tr><td style="font-weight:bold;vertical-align:top;">expires</td><td style="vertical-align:top;">:</td><td><div></div></td></tr><tr><td style="font-weight:bold;vertical-align:top;">httponly</td><td style="vertical-align:top;">:</td><td><div></div></td></tr><tr><td style="font-weight:bold;vertical-align:top;">max-age</td><td style="vertical-align:top;">:</td><td><div></div></td></tr><tr><td style="font-weight:bold;vertical-align:top;">path</td><td style="vertical-align:top;">:</td><td><div>/</div></td></tr><tr><td style="font-weight:bold;vertical-align:top;">secure</td><td style="vertical-align:top;">:</td><td><div></div></td></tr><tr><td style="font-weight:bold;vertical-align:top;">version</td><td style="vertical-align:top;">:</td><td><div></div></td></tr></table></div></td></tr></table></div></td></tr><tr><td style="font-weight:bold;vertical-align:top;">delimiters</td><td style="vertical-align:top;">:</td><td><div><table><tr><td><div>{{</div></td></tr><tr><td><div>}}</div></td></tr></table></div></td></tr><tr><td style="font-weight:bold;vertical-align:top;">files</td><td style="vertical-align:top;">:</td><td><div><table></table></div></td></tr><tr><td style="font-weight:bold;vertical-align:top;">flash</td><td style="vertical-align:top;">:</td><td><div></div></td></tr><tr><td style="font-weight:bold;vertical-align:top;">form_label_separator</td><td style="vertical-align:top;">:</td><td><div></div></td></tr><tr><td style="font-weight:bold;vertical-align:top;">formstyle</td><td style="vertical-align:top;">:</td><td><div>bootstrap4_inline</div></td></tr><tr><td style="font-weight:bold;vertical-align:top;">generic_patterns</td><td style="vertical-align:top;">:</td><td><div><table></table></div></td></tr><tr><td style="font-weight:bold;vertical-align:top;">google_analytics_id</td><td style="vertical-align:top;">:</td><td><div>None</div></td></tr><tr><td style="font-weight:bold;vertical-align:top;">headers</td><td style="vertical-align:top;">:</td><td><div><table><tr><td style="font-weight:bold;vertical-align:top;">X-Powered-By</td><td style="vertical-align:top;">:</td><td><div>web2py</div></td></tr></table></div></td></tr><tr><td style="font-weight:bold;vertical-align:top;">menu</td><td style="vertical-align:top;">:</td><td><div><table><tr><td><div><table><tr><td><div>Geoserver</div></td></tr><tr><td><div>False</div></td></tr><tr><td><div>http://192.168.56.30:8080/geoserver/web</div></td></tr><tr><td><div><table></table></div></td></tr></table></div></td></tr><tr><td><div><table><tr><td><div>Meus sites</div></td></tr><tr><td><div>False</div></td></tr><tr><td><div>/admin/site</div></td></tr></table></div></td></tr><tr><td><div><table><tr><td><div>Esta aplica\xc3\xa7\xc3\xa3o</div></td></tr><tr><td><div>False</div></td></tr><tr><td><div>#</div></td></tr><tr><td><div><table><tr><td><div><table><tr><td><div>Design</div></td></tr><tr><td><div>False</div></td></tr><tr><td><div>/admin/design/radiomaps</div></td></tr></table></div></td></tr><tr><td><div><table><tr><td><div>Controlador</div></td></tr><tr><td><div>False</div></td></tr><tr><td><div>/admin/edit/radiomaps/controllers/default.py</div></td></tr></table></div></td></tr><tr><td><div><table><tr><td><div>Visualiza\xc3\xa7\xc3\xa3o</div></td></tr><tr><td><div>False</div></td></tr><tr><td><div>/admin/edit/radiomaps/views/default/index.html</div></td></tr></table></div></td></tr><tr><td><div><table><tr><td><div>Modelo BD</div></td></tr><tr><td><div>False</div></td></tr><tr><td><div>/admin/edit/radiomaps/models/db.py</div></td></tr></table></div></td></tr><tr><td><div><table><tr><td><div>Modelo de Menu</div></td></tr><tr><td><div>False</div></td></tr><tr><td><div>/admin/edit/radiomaps/models/menu.py</div></td></tr></table></div></td></tr><tr><td><div><table><tr><td><div>Config.ini</div></td></tr><tr><td><div>False</div></td></tr><tr><td><div>/admin/edit/radiomaps/private/appconfig.ini</div></td></tr></table></div></td></tr><tr><td><div><table><tr><td><div>Layout</div></td></tr><tr><td><div>False</div></td></tr><tr><td><div>/admin/edit/radiomaps/views/layout.html</div></td></tr></table></div></td></tr><tr><td><div><table><tr><td><div>Folha de estilo</div></td></tr><tr><td><div>False</div></td></tr><tr><td><div>/admin/edit/radiomaps/static/css/web2py-bootstrap3.css</div></td></tr></table></div></td></tr><tr><td><div><table><tr><td><div>banco de dados</div></td></tr><tr><td><div>False</div></td></tr><tr><td><div>/appadmin</div></td></tr></table></div></td></tr><tr><td><div><table><tr><td><div>Erros</div></td></tr><tr><td><div>False</div></td></tr><tr><td><div>/admin/errors/radiomaps</div></td></tr></table></div></td></tr><tr><td><div><table><tr><td><div>Sobre</div></td></tr><tr><td><div>False</div></td></tr><tr><td><div>/admin/about/radiomaps</div></td></tr></table></div></td></tr></table></div></td></tr></table></div></td></tr></table></div></td></tr><tr><td style="font-weight:bold;vertical-align:top;">meta</td><td style="vertical-align:top;">:</td><td><div><table><tr><td style="font-weight:bold;vertical-align:top;">author</td><td style="vertical-align:top;">:</td><td><div>Your Name &lt;you@example.com&gt;</div></td></tr><tr><td style="font-weight:bold;vertical-align:top;">description</td><td style="vertical-align:top;">:</td><td><div>a cool new app</div></td></tr><tr><td style="font-weight:bold;vertical-align:top;">generator</td><td style="vertical-align:top;">:</td><td><div>Web2py Web Framework</div></td></tr><tr><td style="font-weight:bold;vertical-align:top;">keywords</td><td style="vertical-align:top;">:</td><td><div><table><tr><td><div>web2py</div></td></tr><tr><td><div>python</div></td></tr><tr><td><div>framework</div></td></tr></table></div></td></tr></table></div></td></tr><tr><td style="font-weight:bold;vertical-align:top;">models_to_run</td><td style="vertical-align:top;">:</td><td><div><table><tr><td><div>^\\w+\\.py$</div></td></tr><tr><td><div>^default/\\w+\\.py$</div></td></tr><tr><td><div>^default/index/\\w+\\.py$</div></td></tr></table></div></td></tr><tr><td style="font-weight:bold;vertical-align:top;">postprocessing</td><td style="vertical-align:top;">:</td><td><div><table></table></div></td></tr><tr><td style="font-weight:bold;vertical-align:top;">session_client</td><td style="vertical-align:top;">:</td><td><div>192.168.56.1</div></td></tr><tr><td style="font-weight:bold;vertical-align:top;">session_cookie_compression_level</td><td style="vertical-align:top;">:</td><td><div>None</div></td></tr><tr><td style="font-weight:bold;vertical-align:top;">session_cookie_expires</td><td style="vertical-align:top;">:</td><td><div>None</div></td></tr><tr><td style="font-weight:bold;vertical-align:top;">session_data_name</td><td style="vertical-align:top;">:</td><td><div>session_data_radiomaps</div></td></tr><tr><td style="font-weight:bold;vertical-align:top;">session_file</td><td style="vertical-align:top;">:</td><td><div>None</div></td></tr><tr><td style="font-weight:bold;vertical-align:top;">session_filename</td><td style="vertical-align:top;">:</td><td><div>/var/www/web2py/applications/radiomaps/sessions/192.168.56.1-fba90573-7ddb-4524-871c-f701092af9b0</div></td></tr><tr><td style="font-weight:bold;vertical-align:top;">session_hash</td><td style="vertical-align:top;">:</td><td><div>c0762cbf4baf7f9af97c051e7fcb8083</div></td></tr><tr><td style="font-weight:bold;vertical-align:top;">session_id</td><td style="vertical-align:top;">:</td><td><div>192.168.56.1-fba90573-7ddb-4524-871c-f701092af9b0</div></td></tr><tr><td style="font-weight:bold;vertical-align:top;">session_id_name</td><td style="vertical-align:top;">:</td><td><div>session_id_radiomaps</div></td></tr><tr><td style="font-weight:bold;vertical-align:top;">session_masterapp</td><td style="vertical-align:top;">:</td><td><div>radiomaps</div></td></tr><tr><td style="font-weight:bold;vertical-align:top;">session_new</td><td style="vertical-align:top;">:</td><td><div>True</div></td></tr><tr><td style="font-weight:bold;vertical-align:top;">session_storage_type</td><td style="vertical-align:top;">:</td><td><div>file</div></td></tr><tr><td style="font-weight:bold;vertical-align:top;">show_toolbar</td><td style="vertical-align:top;">:</td><td><div>False</div></td></tr><tr><td style="font-weight:bold;vertical-align:top;">status</td><td style="vertical-align:top;">:</td><td><div>200</div></td></tr><tr><td style="font-weight:bold;vertical-align:top;">view</td><td style="vertical-align:top;">:</td><td><div>default/index.html</div></td></tr></table></div>'
tRp331
sS'locals'
p332
(dp333
S'handlers'
p334
S'[<pydal.helpers.classes.TimingHandler object>]'
p335
sS'self'
p336
S'<pydal.adapters.postgres.PostgrePsycoNew object>'
p337
sg52
S'(\'SELECT "ippos"."ip", "ippos"."descricao", ST_AsG..."."pos",15,0) FROM "ippos" ORDER BY "ippos"."id";\',)'
p338
sS'handler'
p339
S'<pydal.helpers.classes.TimingHandler object>'
p340
sS'command'
p341
S'\'SELECT "ippos"."ip", "ippos"."descricao", ST_AsG..."."pos",15,0) FROM "ippos" ORDER BY "ippos"."id";\''
p342
sS'kwargs'
p343
g21
sssS'traceback'
p344
S'Traceback (most recent call last):\n  File "/var/www/web2py/gluon/restricted.py", line 219, in restricted\n    exec(ccode, environment)\n  File "/var/www/web2py/applications/radiomaps/controllers/default.py", line 132, in <module>\n  File "/var/www/web2py/gluon/globals.py", line 421, in <lambda>\n    self._caller = lambda f: f()\n  File "/var/www/web2py/applications/radiomaps/controllers/default.py", line 17, in index\n    geo_json = get_geojson2()\n  File "/var/www/web2py/applications/radiomaps/controllers/default.py", line 52, in get_geojson2\n    rows=dbpg().select(dbpg.ippos.ip, dbpg.ippos.descricao, dbpg.ippos.pos.st_asgeojson(), orderby=dbpg.ippos.id)\n  File "/var/www/web2py/gluon/packages/dal/pydal/objects.py", line 2277, in select\n    return adapter.select(self.query, fields, attributes)\n  File "/var/www/web2py/gluon/packages/dal/pydal/adapters/base.py", line 763, in select\n    return self._select_aux(sql, fields, attributes, colnames)\n  File "/var/www/web2py/gluon/packages/dal/pydal/adapters/base.py", line 719, in _select_aux\n    rows = self._select_aux_execute(sql)\n  File "/var/www/web2py/gluon/packages/dal/pydal/adapters/base.py", line 713, in _select_aux_execute\n    self.execute(sql)\n  File "/var/www/web2py/gluon/packages/dal/pydal/adapters/__init__.py", line 67, in wrap\n    return f(*args, **kwargs)\n  File "/var/www/web2py/gluon/packages/dal/pydal/adapters/base.py", line 413, in execute\n    rv = self.cursor.execute(command, *args[1:], **kwargs)\nProgrammingError: relation "ippos" does not exist\nLINE 1: ...scricao", ST_AsGeoJSON(1,"ippos"."pos",15,0) FROM "ippos" OR...\n                                                             ^\n\n'
p345
s.